---
triple:          'arm64-apple-darwin'
binary-path:     'build/SnakeGame'
relocations:
  - { offsetInCU: 0x15273, offset: 0x15273, size: 0x8, addend: 0x0, symName: __ZNSt3__118__debug_db_erase_cB7v160006INS_6vectorIN2sf6VertexENS_9allocatorIS3_EEEEEEvPT_, symObjAddr: 0x618, symBinAddr: 0x100004048, symSize: 0x10 }
  - { offsetInCU: 0x152A4, offset: 0x152A4, size: 0x8, addend: 0x0, symName: __ZNSt3__112__to_addressB7v160006IN2sf6VertexEEEPT_S4_, symObjAddr: 0x75C, symBinAddr: 0x10000418C, symSize: 0x14 }
  - { offsetInCU: 0x152D9, offset: 0x152D9, size: 0x8, addend: 0x0, symName: __ZNSt3__119__libcpp_deallocateB7v160006EPvmm, symObjAddr: 0x880, symBinAddr: 0x1000042B0, symSize: 0x30 }
  - { offsetInCU: 0x15321, offset: 0x15321, size: 0x8, addend: 0x0, symName: __ZNSt3__127__do_deallocate_handle_sizeB7v160006IJEEEvPvmDpT_, symObjAddr: 0x8B0, symBinAddr: 0x1000042E0, symSize: 0x28 }
  - { offsetInCU: 0x1535F, offset: 0x1535F, size: 0x8, addend: 0x0, symName: __ZNSt3__124__libcpp_operator_deleteB7v160006IJPvEEEvDpT_, symObjAddr: 0x8D8, symBinAddr: 0x100004308, symSize: 0x24 }
  - { offsetInCU: 0x15394, offset: 0x15394, size: 0x8, addend: 0x0, symName: __ZNSt3__118__debug_db_erase_cB7v160006INS_12basic_stringIjNS_11char_traitsIjEENS_9allocatorIjEEEEEEvPT_, symObjAddr: 0xA70, symBinAddr: 0x1000044A0, symSize: 0x10 }
  - { offsetInCU: 0x153C5, offset: 0x153C5, size: 0x8, addend: 0x0, symName: __ZNSt3__118__debug_db_erase_cB7v160006INS_6vectorIN2sf7Vector2IiEENS_9allocatorIS4_EEEEEEvPT_, symObjAddr: 0xEE8, symBinAddr: 0x100004918, symSize: 0x10 }
  - { offsetInCU: 0x153F6, offset: 0x153F6, size: 0x8, addend: 0x0, symName: __ZNSt3__112__to_addressB7v160006IN2sf7Vector2IiEEEEPT_S5_, symObjAddr: 0x102C, symBinAddr: 0x100004A5C, symSize: 0x14 }
  - { offsetInCU: 0x18648, offset: 0x18648, size: 0x8, addend: 0x0, symName: _main, symObjAddr: 0x0, symBinAddr: 0x100003A30, symSize: 0x6C }
  - { offsetInCU: 0x19028, offset: 0x19028, size: 0x8, addend: 0x0, symName: __ZN4GameD1Ev, symObjAddr: 0x6C, symBinAddr: 0x100003A9C, symSize: 0x2C }
  - { offsetInCU: 0x19052, offset: 0x19052, size: 0x8, addend: 0x0, symName: __ZN4GameD2Ev, symObjAddr: 0x98, symBinAddr: 0x100003AC8, symSize: 0x104 }
  - { offsetInCU: 0x1907C, offset: 0x1907C, size: 0x8, addend: 0x0, symName: __ZN2sf14RectangleShapeD1Ev, symObjAddr: 0x19C, symBinAddr: 0x100003BCC, symSize: 0x2C }
  - { offsetInCU: 0x190A6, offset: 0x190A6, size: 0x8, addend: 0x0, symName: __ZN2sf4TextD1Ev, symObjAddr: 0x1C8, symBinAddr: 0x100003BF8, symSize: 0x2C }
  - { offsetInCU: 0x190D0, offset: 0x190D0, size: 0x8, addend: 0x0, symName: __ZN2sf6SpriteD1Ev, symObjAddr: 0x1F4, symBinAddr: 0x100003C24, symSize: 0x2C }
  - { offsetInCU: 0x190FA, offset: 0x190FA, size: 0x8, addend: 0x0, symName: __ZN5SnakeD1Ev, symObjAddr: 0x220, symBinAddr: 0x100003C50, symSize: 0x2C }
  - { offsetInCU: 0x19124, offset: 0x19124, size: 0x8, addend: 0x0, symName: __ZN2sf14RectangleShapeD2Ev, symObjAddr: 0x24C, symBinAddr: 0x100003C7C, symSize: 0x2C }
  - { offsetInCU: 0x1914E, offset: 0x1914E, size: 0x8, addend: 0x0, symName: __ZThn8_N2sf14RectangleShapeD1Ev, symObjAddr: 0x278, symBinAddr: 0x100003CA8, symSize: 0x1C }
  - { offsetInCU: 0x19163, offset: 0x19163, size: 0x8, addend: 0x0, symName: __ZN2sf4TextD2Ev, symObjAddr: 0x294, symBinAddr: 0x100003CC4, symSize: 0x74 }
  - { offsetInCU: 0x1918D, offset: 0x1918D, size: 0x8, addend: 0x0, symName: __ZThn8_N2sf4TextD1Ev, symObjAddr: 0x308, symBinAddr: 0x100003D38, symSize: 0x1C }
  - { offsetInCU: 0x191A2, offset: 0x191A2, size: 0x8, addend: 0x0, symName: __ZN2sf11VertexArrayD1Ev, symObjAddr: 0x324, symBinAddr: 0x100003D54, symSize: 0x2C }
  - { offsetInCU: 0x191CC, offset: 0x191CC, size: 0x8, addend: 0x0, symName: __ZN2sf6StringD1Ev, symObjAddr: 0x350, symBinAddr: 0x100003D80, symSize: 0x2C }
  - { offsetInCU: 0x191F6, offset: 0x191F6, size: 0x8, addend: 0x0, symName: __ZN2sf8DrawableD2Ev, symObjAddr: 0x37C, symBinAddr: 0x100003DAC, symSize: 0x14 }
  - { offsetInCU: 0x1921E, offset: 0x1921E, size: 0x8, addend: 0x0, symName: __ZN2sf11VertexArrayD2Ev, symObjAddr: 0x390, symBinAddr: 0x100003DC0, symSize: 0x48 }
  - { offsetInCU: 0x19249, offset: 0x19249, size: 0x8, addend: 0x0, symName: __ZNSt3__16vectorIN2sf6VertexENS_9allocatorIS2_EEED1B7v160006Ev, symObjAddr: 0x3D8, symBinAddr: 0x100003E08, symSize: 0x2C }
  - { offsetInCU: 0x19272, offset: 0x19272, size: 0x8, addend: 0x0, symName: __ZNSt3__16vectorIN2sf6VertexENS_9allocatorIS2_EEED2B7v160006Ev, symObjAddr: 0x404, symBinAddr: 0x100003E34, symSize: 0x44 }
  - { offsetInCU: 0x1929B, offset: 0x1929B, size: 0x8, addend: 0x0, symName: __ZNSt3__16vectorIN2sf6VertexENS_9allocatorIS2_EEE16__destroy_vectorC1ERS5_, symObjAddr: 0x448, symBinAddr: 0x100003E78, symSize: 0x34 }
  - { offsetInCU: 0x192D3, offset: 0x192D3, size: 0x8, addend: 0x0, symName: __ZNSt3__16vectorIN2sf6VertexENS_9allocatorIS2_EEE16__destroy_vectorclB7v160006Ev, symObjAddr: 0x488, symBinAddr: 0x100003EB8, symSize: 0x9C }
  - { offsetInCU: 0x192F7, offset: 0x192F7, size: 0x8, addend: 0x0, symName: __ZNSt3__16vectorIN2sf6VertexENS_9allocatorIS2_EEE16__destroy_vectorC2ERS5_, symObjAddr: 0x524, symBinAddr: 0x100003F54, symSize: 0x20 }
  - { offsetInCU: 0x1932F, offset: 0x1932F, size: 0x8, addend: 0x0, symName: __ZNKSt3__16vectorIN2sf6VertexENS_9allocatorIS2_EEE17__annotate_deleteB7v160006Ev, symObjAddr: 0x544, symBinAddr: 0x100003F74, symSize: 0xD4 }
  - { offsetInCU: 0x19354, offset: 0x19354, size: 0x8, addend: 0x0, symName: __ZNSt3__16vectorIN2sf6VertexENS_9allocatorIS2_EEE7__clearB7v160006Ev, symObjAddr: 0x628, symBinAddr: 0x100004058, symSize: 0x28 }
  - { offsetInCU: 0x19379, offset: 0x19379, size: 0x8, addend: 0x0, symName: __ZNSt3__116allocator_traitsINS_9allocatorIN2sf6VertexEEEE10deallocateB7v160006ERS4_PS3_m, symObjAddr: 0x650, symBinAddr: 0x100004080, symSize: 0x34 }
  - { offsetInCU: 0x193BB, offset: 0x193BB, size: 0x8, addend: 0x0, symName: __ZNSt3__16vectorIN2sf6VertexENS_9allocatorIS2_EEE7__allocB7v160006Ev, symObjAddr: 0x684, symBinAddr: 0x1000040B4, symSize: 0x28 }
  - { offsetInCU: 0x193E0, offset: 0x193E0, size: 0x8, addend: 0x0, symName: __ZNKSt3__16vectorIN2sf6VertexENS_9allocatorIS2_EEE8capacityB7v160006Ev, symObjAddr: 0x6AC, symBinAddr: 0x1000040DC, symSize: 0x40 }
  - { offsetInCU: 0x19405, offset: 0x19405, size: 0x8, addend: 0x0, symName: __ZNKSt3__16vectorIN2sf6VertexENS_9allocatorIS2_EEE31__annotate_contiguous_containerB7v160006EPKvS7_S7_S7_, symObjAddr: 0x6EC, symBinAddr: 0x10000411C, symSize: 0x20 }
  - { offsetInCU: 0x1945A, offset: 0x1945A, size: 0x8, addend: 0x0, symName: __ZNKSt3__16vectorIN2sf6VertexENS_9allocatorIS2_EEE4dataB7v160006Ev, symObjAddr: 0x70C, symBinAddr: 0x10000413C, symSize: 0x28 }
  - { offsetInCU: 0x1947F, offset: 0x1947F, size: 0x8, addend: 0x0, symName: __ZNKSt3__16vectorIN2sf6VertexENS_9allocatorIS2_EEE4sizeB7v160006Ev, symObjAddr: 0x734, symBinAddr: 0x100004164, symSize: 0x28 }
  - { offsetInCU: 0x194A4, offset: 0x194A4, size: 0x8, addend: 0x0, symName: __ZNSt3__16vectorIN2sf6VertexENS_9allocatorIS2_EEE22__base_destruct_at_endB7v160006EPS2_, symObjAddr: 0x770, symBinAddr: 0x1000041A0, symSize: 0x8C }
  - { offsetInCU: 0x194E8, offset: 0x194E8, size: 0x8, addend: 0x0, symName: __ZNSt3__116allocator_traitsINS_9allocatorIN2sf6VertexEEEE7destroyB7v160006IS3_vEEvRS4_PT_, symObjAddr: 0x7FC, symBinAddr: 0x10000422C, symSize: 0x2C }
  - { offsetInCU: 0x19525, offset: 0x19525, size: 0x8, addend: 0x0, symName: __ZNSt3__19allocatorIN2sf6VertexEE7destroyB7v160006EPS2_, symObjAddr: 0x828, symBinAddr: 0x100004258, symSize: 0x14 }
  - { offsetInCU: 0x19558, offset: 0x19558, size: 0x8, addend: 0x0, symName: __ZNSt3__19allocatorIN2sf6VertexEE10deallocateB7v160006EPS2_m, symObjAddr: 0x83C, symBinAddr: 0x10000426C, symSize: 0x44 }
  - { offsetInCU: 0x19599, offset: 0x19599, size: 0x8, addend: 0x0, symName: __ZNSt3__117__compressed_pairIPN2sf6VertexENS_9allocatorIS2_EEE6secondB7v160006Ev, symObjAddr: 0x8FC, symBinAddr: 0x10000432C, symSize: 0x24 }
  - { offsetInCU: 0x195BE, offset: 0x195BE, size: 0x8, addend: 0x0, symName: __ZNSt3__122__compressed_pair_elemINS_9allocatorIN2sf6VertexEEELi1ELb1EE5__getB7v160006Ev, symObjAddr: 0x920, symBinAddr: 0x100004350, symSize: 0x14 }
  - { offsetInCU: 0x195E3, offset: 0x195E3, size: 0x8, addend: 0x0, symName: __ZNKSt3__16vectorIN2sf6VertexENS_9allocatorIS2_EEE9__end_capB7v160006Ev, symObjAddr: 0x934, symBinAddr: 0x100004364, symSize: 0x28 }
  - { offsetInCU: 0x19608, offset: 0x19608, size: 0x8, addend: 0x0, symName: __ZNKSt3__117__compressed_pairIPN2sf6VertexENS_9allocatorIS2_EEE5firstB7v160006Ev, symObjAddr: 0x95C, symBinAddr: 0x10000438C, symSize: 0x24 }
  - { offsetInCU: 0x1962D, offset: 0x1962D, size: 0x8, addend: 0x0, symName: __ZNKSt3__122__compressed_pair_elemIPN2sf6VertexELi0ELb0EE5__getB7v160006Ev, symObjAddr: 0x980, symBinAddr: 0x1000043B0, symSize: 0x14 }
  - { offsetInCU: 0x19651, offset: 0x19651, size: 0x8, addend: 0x0, symName: __ZN2sf6StringD2Ev, symObjAddr: 0x994, symBinAddr: 0x1000043C4, symSize: 0x2C }
  - { offsetInCU: 0x1967C, offset: 0x1967C, size: 0x8, addend: 0x0, symName: __ZNSt3__112basic_stringIjNS_11char_traitsIjEENS_9allocatorIjEEED1Ev, symObjAddr: 0x9C0, symBinAddr: 0x1000043F0, symSize: 0x2C }
  - { offsetInCU: 0x196A7, offset: 0x196A7, size: 0x8, addend: 0x0, symName: __ZNSt3__112basic_stringIjNS_11char_traitsIjEENS_9allocatorIjEEED2Ev, symObjAddr: 0x9EC, symBinAddr: 0x10000441C, symSize: 0x84 }
  - { offsetInCU: 0x196D2, offset: 0x196D2, size: 0x8, addend: 0x0, symName: __ZNKSt3__112basic_stringIjNS_11char_traitsIjEENS_9allocatorIjEEE9__is_longB7v160006Ev, symObjAddr: 0xA80, symBinAddr: 0x1000044B0, symSize: 0x38 }
  - { offsetInCU: 0x196F7, offset: 0x196F7, size: 0x8, addend: 0x0, symName: __ZNSt3__116allocator_traitsINS_9allocatorIjEEE10deallocateB7v160006ERS2_Pjm, symObjAddr: 0xAB8, symBinAddr: 0x1000044E8, symSize: 0x34 }
  - { offsetInCU: 0x19739, offset: 0x19739, size: 0x8, addend: 0x0, symName: __ZNSt3__112basic_stringIjNS_11char_traitsIjEENS_9allocatorIjEEE7__allocB7v160006Ev, symObjAddr: 0xAEC, symBinAddr: 0x10000451C, symSize: 0x24 }
  - { offsetInCU: 0x1975E, offset: 0x1975E, size: 0x8, addend: 0x0, symName: __ZNSt3__112basic_stringIjNS_11char_traitsIjEENS_9allocatorIjEEE18__get_long_pointerB7v160006Ev, symObjAddr: 0xB10, symBinAddr: 0x100004540, symSize: 0x28 }
  - { offsetInCU: 0x19783, offset: 0x19783, size: 0x8, addend: 0x0, symName: __ZNKSt3__112basic_stringIjNS_11char_traitsIjEENS_9allocatorIjEEE14__get_long_capB7v160006Ev, symObjAddr: 0xB38, symBinAddr: 0x100004568, symSize: 0x30 }
  - { offsetInCU: 0x197A8, offset: 0x197A8, size: 0x8, addend: 0x0, symName: __ZNKSt3__117__compressed_pairINS_12basic_stringIjNS_11char_traitsIjEENS_9allocatorIjEEE5__repES5_E5firstB7v160006Ev, symObjAddr: 0xB68, symBinAddr: 0x100004598, symSize: 0x24 }
  - { offsetInCU: 0x197CD, offset: 0x197CD, size: 0x8, addend: 0x0, symName: __ZNKSt3__122__compressed_pair_elemINS_12basic_stringIjNS_11char_traitsIjEENS_9allocatorIjEEE5__repELi0ELb0EE5__getB7v160006Ev, symObjAddr: 0xB8C, symBinAddr: 0x1000045BC, symSize: 0x14 }
  - { offsetInCU: 0x197F2, offset: 0x197F2, size: 0x8, addend: 0x0, symName: __ZNSt3__19allocatorIjE10deallocateB7v160006EPjm, symObjAddr: 0xBA0, symBinAddr: 0x1000045D0, symSize: 0x40 }
  - { offsetInCU: 0x19833, offset: 0x19833, size: 0x8, addend: 0x0, symName: __ZNSt3__117__compressed_pairINS_12basic_stringIjNS_11char_traitsIjEENS_9allocatorIjEEE5__repES5_E6secondB7v160006Ev, symObjAddr: 0xBE0, symBinAddr: 0x100004610, symSize: 0x24 }
  - { offsetInCU: 0x19858, offset: 0x19858, size: 0x8, addend: 0x0, symName: __ZNSt3__122__compressed_pair_elemINS_9allocatorIjEELi1ELb1EE5__getB7v160006Ev, symObjAddr: 0xC04, symBinAddr: 0x100004634, symSize: 0x14 }
  - { offsetInCU: 0x1987D, offset: 0x1987D, size: 0x8, addend: 0x0, symName: __ZNSt3__117__compressed_pairINS_12basic_stringIjNS_11char_traitsIjEENS_9allocatorIjEEE5__repES5_E5firstB7v160006Ev, symObjAddr: 0xC18, symBinAddr: 0x100004648, symSize: 0x24 }
  - { offsetInCU: 0x198A2, offset: 0x198A2, size: 0x8, addend: 0x0, symName: __ZNSt3__122__compressed_pair_elemINS_12basic_stringIjNS_11char_traitsIjEENS_9allocatorIjEEE5__repELi0ELb0EE5__getB7v160006Ev, symObjAddr: 0xC3C, symBinAddr: 0x10000466C, symSize: 0x14 }
  - { offsetInCU: 0x198C6, offset: 0x198C6, size: 0x8, addend: 0x0, symName: __ZN2sf6SpriteD2Ev, symObjAddr: 0xC50, symBinAddr: 0x100004680, symSize: 0x38 }
  - { offsetInCU: 0x198F0, offset: 0x198F0, size: 0x8, addend: 0x0, symName: __ZThn8_N2sf6SpriteD1Ev, symObjAddr: 0xC88, symBinAddr: 0x1000046B8, symSize: 0x1C }
  - { offsetInCU: 0x19905, offset: 0x19905, size: 0x8, addend: 0x0, symName: __ZN5SnakeD2Ev, symObjAddr: 0xCA4, symBinAddr: 0x1000046D4, symSize: 0x2C }
  - { offsetInCU: 0x19930, offset: 0x19930, size: 0x8, addend: 0x0, symName: __ZNSt3__16vectorIN2sf7Vector2IiEENS_9allocatorIS3_EEED1B7v160006Ev, symObjAddr: 0xCD0, symBinAddr: 0x100004700, symSize: 0x2C }
  - { offsetInCU: 0x19959, offset: 0x19959, size: 0x8, addend: 0x0, symName: __ZNSt3__16vectorIN2sf7Vector2IiEENS_9allocatorIS3_EEED2B7v160006Ev, symObjAddr: 0xCFC, symBinAddr: 0x10000472C, symSize: 0x44 }
  - { offsetInCU: 0x19982, offset: 0x19982, size: 0x8, addend: 0x0, symName: __ZNSt3__16vectorIN2sf7Vector2IiEENS_9allocatorIS3_EEE16__destroy_vectorC1ERS6_, symObjAddr: 0xD40, symBinAddr: 0x100004770, symSize: 0x34 }
  - { offsetInCU: 0x199BA, offset: 0x199BA, size: 0x8, addend: 0x0, symName: __ZNSt3__16vectorIN2sf7Vector2IiEENS_9allocatorIS3_EEE16__destroy_vectorclB7v160006Ev, symObjAddr: 0xD74, symBinAddr: 0x1000047A4, symSize: 0x9C }
  - { offsetInCU: 0x199DE, offset: 0x199DE, size: 0x8, addend: 0x0, symName: __ZNSt3__16vectorIN2sf7Vector2IiEENS_9allocatorIS3_EEE16__destroy_vectorC2ERS6_, symObjAddr: 0xE10, symBinAddr: 0x100004840, symSize: 0x20 }
  - { offsetInCU: 0x19A16, offset: 0x19A16, size: 0x8, addend: 0x0, symName: __ZNKSt3__16vectorIN2sf7Vector2IiEENS_9allocatorIS3_EEE17__annotate_deleteB7v160006Ev, symObjAddr: 0xE30, symBinAddr: 0x100004860, symSize: 0xB8 }
  - { offsetInCU: 0x19A3B, offset: 0x19A3B, size: 0x8, addend: 0x0, symName: __ZNSt3__16vectorIN2sf7Vector2IiEENS_9allocatorIS3_EEE7__clearB7v160006Ev, symObjAddr: 0xEF8, symBinAddr: 0x100004928, symSize: 0x28 }
  - { offsetInCU: 0x19A60, offset: 0x19A60, size: 0x8, addend: 0x0, symName: __ZNSt3__116allocator_traitsINS_9allocatorIN2sf7Vector2IiEEEEE10deallocateB7v160006ERS5_PS4_m, symObjAddr: 0xF20, symBinAddr: 0x100004950, symSize: 0x34 }
  - { offsetInCU: 0x19AA2, offset: 0x19AA2, size: 0x8, addend: 0x0, symName: __ZNSt3__16vectorIN2sf7Vector2IiEENS_9allocatorIS3_EEE7__allocB7v160006Ev, symObjAddr: 0xF54, symBinAddr: 0x100004984, symSize: 0x28 }
  - { offsetInCU: 0x19AC7, offset: 0x19AC7, size: 0x8, addend: 0x0, symName: __ZNKSt3__16vectorIN2sf7Vector2IiEENS_9allocatorIS3_EEE8capacityB7v160006Ev, symObjAddr: 0xF7C, symBinAddr: 0x1000049AC, symSize: 0x40 }
  - { offsetInCU: 0x19AEC, offset: 0x19AEC, size: 0x8, addend: 0x0, symName: __ZNKSt3__16vectorIN2sf7Vector2IiEENS_9allocatorIS3_EEE31__annotate_contiguous_containerB7v160006EPKvS8_S8_S8_, symObjAddr: 0xFBC, symBinAddr: 0x1000049EC, symSize: 0x20 }
  - { offsetInCU: 0x19B41, offset: 0x19B41, size: 0x8, addend: 0x0, symName: __ZNKSt3__16vectorIN2sf7Vector2IiEENS_9allocatorIS3_EEE4dataB7v160006Ev, symObjAddr: 0xFDC, symBinAddr: 0x100004A0C, symSize: 0x28 }
  - { offsetInCU: 0x19B66, offset: 0x19B66, size: 0x8, addend: 0x0, symName: __ZNKSt3__16vectorIN2sf7Vector2IiEENS_9allocatorIS3_EEE4sizeB7v160006Ev, symObjAddr: 0x1004, symBinAddr: 0x100004A34, symSize: 0x28 }
  - { offsetInCU: 0x19B8B, offset: 0x19B8B, size: 0x8, addend: 0x0, symName: __ZNSt3__16vectorIN2sf7Vector2IiEENS_9allocatorIS3_EEE22__base_destruct_at_endB7v160006EPS3_, symObjAddr: 0x1040, symBinAddr: 0x100004A70, symSize: 0x8C }
  - { offsetInCU: 0x19BCF, offset: 0x19BCF, size: 0x8, addend: 0x0, symName: __ZNSt3__116allocator_traitsINS_9allocatorIN2sf7Vector2IiEEEEE7destroyB7v160006IS4_vEEvRS5_PT_, symObjAddr: 0x10CC, symBinAddr: 0x100004AFC, symSize: 0x2C }
  - { offsetInCU: 0x19C0C, offset: 0x19C0C, size: 0x8, addend: 0x0, symName: __ZNSt3__19allocatorIN2sf7Vector2IiEEE7destroyB7v160006EPS3_, symObjAddr: 0x10F8, symBinAddr: 0x100004B28, symSize: 0x14 }
  - { offsetInCU: 0x19C3F, offset: 0x19C3F, size: 0x8, addend: 0x0, symName: __ZNSt3__19allocatorIN2sf7Vector2IiEEE10deallocateB7v160006EPS3_m, symObjAddr: 0x110C, symBinAddr: 0x100004B3C, symSize: 0x40 }
  - { offsetInCU: 0x19C80, offset: 0x19C80, size: 0x8, addend: 0x0, symName: __ZNSt3__117__compressed_pairIPN2sf7Vector2IiEENS_9allocatorIS3_EEE6secondB7v160006Ev, symObjAddr: 0x114C, symBinAddr: 0x100004B7C, symSize: 0x24 }
  - { offsetInCU: 0x19CA5, offset: 0x19CA5, size: 0x8, addend: 0x0, symName: __ZNSt3__122__compressed_pair_elemINS_9allocatorIN2sf7Vector2IiEEEELi1ELb1EE5__getB7v160006Ev, symObjAddr: 0x1170, symBinAddr: 0x100004BA0, symSize: 0x14 }
  - { offsetInCU: 0x19CCA, offset: 0x19CCA, size: 0x8, addend: 0x0, symName: __ZNKSt3__16vectorIN2sf7Vector2IiEENS_9allocatorIS3_EEE9__end_capB7v160006Ev, symObjAddr: 0x1184, symBinAddr: 0x100004BB4, symSize: 0x28 }
  - { offsetInCU: 0x19CEF, offset: 0x19CEF, size: 0x8, addend: 0x0, symName: __ZNKSt3__117__compressed_pairIPN2sf7Vector2IiEENS_9allocatorIS3_EEE5firstB7v160006Ev, symObjAddr: 0x11AC, symBinAddr: 0x100004BDC, symSize: 0x24 }
  - { offsetInCU: 0x19D14, offset: 0x19D14, size: 0x8, addend: 0x0, symName: __ZNKSt3__122__compressed_pair_elemIPN2sf7Vector2IiEELi0ELb0EE5__getB7v160006Ev, symObjAddr: 0x11D0, symBinAddr: 0x100004C00, symSize: 0x14 }
  - { offsetInCU: 0xCC8, offset: 0x1AA7D, size: 0x8, addend: 0x0, symName: __ZN2sfeqIiEEbRKNS_7Vector2IT_EES5_, symObjAddr: 0x1A5C, symBinAddr: 0x10000656C, symSize: 0x64 }
  - { offsetInCU: 0xB905, offset: 0x256BA, size: 0x8, addend: 0x0, symName: __ZNSt3__124__put_character_sequenceB7v160006IcNS_11char_traitsIcEEEERNS_13basic_ostreamIT_T0_EES7_PKS4_m, symObjAddr: 0x30C8, symBinAddr: 0x100006C94, symSize: 0x1EC }
  - { offsetInCU: 0xD251, offset: 0x27006, size: 0x8, addend: 0x0, symName: __ZNSt3__1lsB7v160006INS_11char_traitsIcEEEERNS_13basic_ostreamIcT_EES6_PKc, symObjAddr: 0xB90, symBinAddr: 0x100005778, symSize: 0x48 }
  - { offsetInCU: 0xD298, offset: 0x2704D, size: 0x8, addend: 0x0, symName: __ZNSt3__14endlB7v160006IcNS_11char_traitsIcEEEERNS_13basic_ostreamIT_T0_EES7_, symObjAddr: 0xC04, symBinAddr: 0x1000057EC, symSize: 0x58 }
  - { offsetInCU: 0xD2D9, offset: 0x2708E, size: 0x8, addend: 0x0, symName: __ZNSt3__1plB7v160006IcNS_11char_traitsIcEENS_9allocatorIcEEEENS_12basic_stringIT_T0_T1_EEPKS6_OS9_, symObjAddr: 0x1B20, symBinAddr: 0x100006630, symSize: 0x44 }
  - { offsetInCU: 0xD332, offset: 0x270E7, size: 0x8, addend: 0x0, symName: __ZNSt3__115__debug_db_swapB7v160006INS_6vectorIN2sf7Vector2IiEENS_9allocatorIS4_EEEEEEvPT_S9_, symObjAddr: 0x2D1C, symBinAddr: 0x1000068E8, symSize: 0x14 }
  - { offsetInCU: 0xD371, offset: 0x27126, size: 0x8, addend: 0x0, symName: __ZNSt3__125__debug_db_invalidate_allB7v160006INS_6vectorIN2sf7Vector2IiEENS_9allocatorIS4_EEEEEEvPT_, symObjAddr: 0x2E38, symBinAddr: 0x100006A04, symSize: 0x10 }
  - { offsetInCU: 0xD3A2, offset: 0x27157, size: 0x8, addend: 0x0, symName: __ZNSt3__119__debug_db_insert_cB7v160006INS_12basic_stringIcNS_11char_traitsIcEENS_9allocatorIcEEEEEEvPT_, symObjAddr: 0x2FD8, symBinAddr: 0x100006BA4, symSize: 0x10 }
  - { offsetInCU: 0xD3D3, offset: 0x27188, size: 0x8, addend: 0x0, symName: __ZNSt3__118__constexpr_strlenB7v160006EPKc, symObjAddr: 0x30A4, symBinAddr: 0x100006C70, symSize: 0x24 }
  - { offsetInCU: 0xD400, offset: 0x271B5, size: 0x8, addend: 0x0, symName: __ZNSt3__116__pad_and_outputB7v160006IcNS_11char_traitsIcEEEENS_19ostreambuf_iteratorIT_T0_EES6_PKS4_S8_S8_RNS_8ios_baseES4_, symObjAddr: 0x32D0, symBinAddr: 0x100006E9C, symSize: 0x240 }
  - { offsetInCU: 0xD4D5, offset: 0x2728A, size: 0x8, addend: 0x0, symName: __ZNSt3__112__to_addressB7v160006IKcEEPT_S3_, symObjAddr: 0x3748, symBinAddr: 0x100007314, symSize: 0x14 }
  - { offsetInCU: 0xD53D, offset: 0x272F2, size: 0x8, addend: 0x0, symName: __ZNSt3__19use_facetB7v160006INS_5ctypeIcEEEERKT_RKNS_6localeE, symObjAddr: 0x39C8, symBinAddr: 0x100007594, symSize: 0x2C }
  - { offsetInCU: 0xDA0F, offset: 0x277C4, size: 0x8, addend: 0x0, symName: __ZNSt3__115__debug_db_swapB7v160006INS_12basic_stringIcNS_11char_traitsIcEENS_9allocatorIcEEEEEEvPT_S8_, symObjAddr: 0x3B84, symBinAddr: 0x100007750, symSize: 0x14 }
  - { offsetInCU: 0x10495, offset: 0x2A24A, size: 0x8, addend: 0x0, symName: __ZN4GameC2Ev, symObjAddr: 0x0, symBinAddr: 0x100004C14, symSize: 0xA58 }
  - { offsetInCU: 0x104BF, offset: 0x2A274, size: 0x8, addend: 0x0, symName: __ZN2sf15ContextSettingsC1Ejjjjjjb, symObjAddr: 0xA58, symBinAddr: 0x10000566C, symSize: 0x70 }
  - { offsetInCU: 0x1054A, offset: 0x2A2FF, size: 0x8, addend: 0x0, symName: __ZN2sf7Vector2IfEC1Eff, symObjAddr: 0xAF4, symBinAddr: 0x1000056DC, symSize: 0x3C }
  - { offsetInCU: 0x10595, offset: 0x2A34A, size: 0x8, addend: 0x0, symName: __ZNSt3__112basic_stringIcNS_11char_traitsIcEENS_9allocatorIcEEEC1B7v160006IDnEEPKc, symObjAddr: 0xB30, symBinAddr: 0x100005718, symSize: 0x34 }
  - { offsetInCU: 0x105D2, offset: 0x2A387, size: 0x8, addend: 0x0, symName: __ZN2sf4RectIiEC1Ev, symObjAddr: 0xB64, symBinAddr: 0x10000574C, symSize: 0x2C }
  - { offsetInCU: 0x105FC, offset: 0x2A3B1, size: 0x8, addend: 0x0, symName: __ZNSt3__113basic_ostreamIcNS_11char_traitsIcEEElsB7v160006EPFRS3_S4_E, symObjAddr: 0xBD8, symBinAddr: 0x1000057C0, symSize: 0x2C }
  - { offsetInCU: 0x1062F, offset: 0x2A3E4, size: 0x8, addend: 0x0, symName: __ZN4GameC1Ev, symObjAddr: 0xD0C, symBinAddr: 0x100005844, symSize: 0x2C }
  - { offsetInCU: 0x10659, offset: 0x2A40E, size: 0x8, addend: 0x0, symName: __ZN4Game3runEv, symObjAddr: 0xD38, symBinAddr: 0x100005870, symSize: 0xF8 }
  - { offsetInCU: 0x106C7, offset: 0x2A47C, size: 0x8, addend: 0x0, symName: __ZN4Game11handleInputEv, symObjAddr: 0xE30, symBinAddr: 0x100005968, symSize: 0x1B4 }
  - { offsetInCU: 0x106FC, offset: 0x2A4B1, size: 0x8, addend: 0x0, symName: __ZN4Game6updateEv, symObjAddr: 0xFE4, symBinAddr: 0x100005B1C, symSize: 0x144 }
  - { offsetInCU: 0x1074E, offset: 0x2A503, size: 0x8, addend: 0x0, symName: __ZN4Game6renderEv, symObjAddr: 0x1128, symBinAddr: 0x100005C60, symSize: 0x8A0 }
  - { offsetInCU: 0x10843, offset: 0x2A5F8, size: 0x8, addend: 0x0, symName: __ZN4Game5resetEv, symObjAddr: 0x19C8, symBinAddr: 0x100006500, symSize: 0x6C }
  - { offsetInCU: 0x1086A, offset: 0x2A61F, size: 0x8, addend: 0x0, symName: __ZN2sf7Vector2IiEC1Eii, symObjAddr: 0x1AC0, symBinAddr: 0x1000065D0, symSize: 0x3C }
  - { offsetInCU: 0x108B0, offset: 0x2A665, size: 0x8, addend: 0x0, symName: __ZNKSt3__16vectorIN2sf7Vector2IiEENS_9allocatorIS3_EEEixB7v160006Em, symObjAddr: 0x1AFC, symBinAddr: 0x10000660C, symSize: 0x24 }
  - { offsetInCU: 0x108F0, offset: 0x2A6A5, size: 0x8, addend: 0x0, symName: __ZN5SnakeaSEOS_, symObjAddr: 0x1B64, symBinAddr: 0x100006674, symSize: 0x40 }
  - { offsetInCU: 0x10920, offset: 0x2A6D5, size: 0x8, addend: 0x0, symName: __ZN2sf15ContextSettingsC2Ejjjjjjb, symObjAddr: 0x1BA4, symBinAddr: 0x1000066B4, symSize: 0x74 }
  - { offsetInCU: 0x109AA, offset: 0x2A75F, size: 0x8, addend: 0x0, symName: __ZNSt3__16vectorIN2sf7Vector2IiEENS_9allocatorIS3_EEEaSB7v160006EOS6_, symObjAddr: 0x2B5C, symBinAddr: 0x100006728, symSize: 0x34 }
  - { offsetInCU: 0x109E0, offset: 0x2A795, size: 0x8, addend: 0x0, symName: __ZNSt3__16vectorIN2sf7Vector2IiEENS_9allocatorIS3_EEE13__move_assignERS6_NS_17integral_constantIbLb1EEE, symObjAddr: 0x2B90, symBinAddr: 0x10000675C, symSize: 0xAC }
  - { offsetInCU: 0x10A22, offset: 0x2A7D7, size: 0x8, addend: 0x0, symName: __ZNSt3__16vectorIN2sf7Vector2IiEENS_9allocatorIS3_EEE13__vdeallocateEv, symObjAddr: 0x2C3C, symBinAddr: 0x100006808, symSize: 0x8C }
  - { offsetInCU: 0x10A49, offset: 0x2A7FE, size: 0x8, addend: 0x0, symName: __ZNSt3__16vectorIN2sf7Vector2IiEENS_9allocatorIS3_EEE19__move_assign_allocB7v160006ERS6_, symObjAddr: 0x2CC8, symBinAddr: 0x100006894, symSize: 0x2C }
  - { offsetInCU: 0x10A7D, offset: 0x2A832, size: 0x8, addend: 0x0, symName: __ZNSt3__16vectorIN2sf7Vector2IiEENS_9allocatorIS3_EEE9__end_capB7v160006Ev, symObjAddr: 0x2CF4, symBinAddr: 0x1000068C0, symSize: 0x28 }
  - { offsetInCU: 0x10AA2, offset: 0x2A857, size: 0x8, addend: 0x0, symName: __ZNSt3__16vectorIN2sf7Vector2IiEENS_9allocatorIS3_EEE5clearB7v160006Ev, symObjAddr: 0x2D30, symBinAddr: 0x1000068FC, symSize: 0x54 }
  - { offsetInCU: 0x10AD7, offset: 0x2A88C, size: 0x8, addend: 0x0, symName: __ZNKSt3__16vectorIN2sf7Vector2IiEENS_9allocatorIS3_EEE17__annotate_shrinkB7v160006Em, symObjAddr: 0x2D84, symBinAddr: 0x100006950, symSize: 0xB4 }
  - { offsetInCU: 0x10B0B, offset: 0x2A8C0, size: 0x8, addend: 0x0, symName: __ZNSt3__16vectorIN2sf7Vector2IiEENS_9allocatorIS3_EEE19__move_assign_allocB7v160006ERS6_NS_17integral_constantIbLb1EEE, symObjAddr: 0x2E48, symBinAddr: 0x100006A14, symSize: 0x38 }
  - { offsetInCU: 0x10B4B, offset: 0x2A900, size: 0x8, addend: 0x0, symName: __ZNSt3__117__compressed_pairIPN2sf7Vector2IiEENS_9allocatorIS3_EEE5firstB7v160006Ev, symObjAddr: 0x2E80, symBinAddr: 0x100006A4C, symSize: 0x24 }
  - { offsetInCU: 0x10B70, offset: 0x2A925, size: 0x8, addend: 0x0, symName: __ZNSt3__122__compressed_pair_elemIPN2sf7Vector2IiEELi0ELb0EE5__getB7v160006Ev, symObjAddr: 0x2EA4, symBinAddr: 0x100006A70, symSize: 0x14 }
  - { offsetInCU: 0x10B95, offset: 0x2A94A, size: 0x8, addend: 0x0, symName: __ZN2sf4RectIiEC2Ev, symObjAddr: 0x2EB8, symBinAddr: 0x100006A84, symSize: 0x24 }
  - { offsetInCU: 0x10BC0, offset: 0x2A975, size: 0x8, addend: 0x0, symName: __ZN2sf7Vector2IfEC2Eff, symObjAddr: 0x2EDC, symBinAddr: 0x100006AA8, symSize: 0x2C }
  - { offsetInCU: 0x10C07, offset: 0x2A9BC, size: 0x8, addend: 0x0, symName: __ZNSt3__112basic_stringIcNS_11char_traitsIcEENS_9allocatorIcEEEC2B7v160006IDnEEPKc, symObjAddr: 0x2F08, symBinAddr: 0x100006AD4, symSize: 0x60 }
  - { offsetInCU: 0x10C49, offset: 0x2A9FE, size: 0x8, addend: 0x0, symName: __ZNSt3__117__compressed_pairINS_12basic_stringIcNS_11char_traitsIcEENS_9allocatorIcEEE5__repES5_EC1B7v160006INS_18__default_init_tagESA_EEOT_OT0_, symObjAddr: 0x2F68, symBinAddr: 0x100006B34, symSize: 0x3C }
  - { offsetInCU: 0x10CA0, offset: 0x2AA55, size: 0x8, addend: 0x0, symName: __ZNSt3__111char_traitsIcE6lengthEPKc, symObjAddr: 0x2FA4, symBinAddr: 0x100006B70, symSize: 0x34 }
  - { offsetInCU: 0x10CC3, offset: 0x2AA78, size: 0x8, addend: 0x0, symName: __ZNSt3__117__compressed_pairINS_12basic_stringIcNS_11char_traitsIcEENS_9allocatorIcEEE5__repES5_EC2B7v160006INS_18__default_init_tagESA_EEOT_OT0_, symObjAddr: 0x2FE8, symBinAddr: 0x100006BB4, symSize: 0x3C }
  - { offsetInCU: 0x10D1A, offset: 0x2AACF, size: 0x8, addend: 0x0, symName: __ZNSt3__122__compressed_pair_elemINS_12basic_stringIcNS_11char_traitsIcEENS_9allocatorIcEEE5__repELi0ELb0EEC2B7v160006ENS_18__default_init_tagE, symObjAddr: 0x3024, symBinAddr: 0x100006BF0, symSize: 0x14 }
  - { offsetInCU: 0x10D4D, offset: 0x2AB02, size: 0x8, addend: 0x0, symName: __ZNSt3__122__compressed_pair_elemINS_9allocatorIcEELi1ELb1EEC2B7v160006ENS_18__default_init_tagE, symObjAddr: 0x3038, symBinAddr: 0x100006C04, symSize: 0x2C }
  - { offsetInCU: 0x10D81, offset: 0x2AB36, size: 0x8, addend: 0x0, symName: __ZNSt3__19allocatorIcEC2B7v160006Ev, symObjAddr: 0x3064, symBinAddr: 0x100006C30, symSize: 0x2C }
  - { offsetInCU: 0x10DAA, offset: 0x2AB5F, size: 0x8, addend: 0x0, symName: __ZNSt3__116__non_trivial_ifILb1ENS_9allocatorIcEEEC2B7v160006Ev, symObjAddr: 0x3090, symBinAddr: 0x100006C5C, symSize: 0x14 }
  - { offsetInCU: 0x10DF0, offset: 0x2ABA5, size: 0x8, addend: 0x0, symName: __ZNKSt3__113basic_ostreamIcNS_11char_traitsIcEEE6sentrycvbB7v160006Ev, symObjAddr: 0x32B4, symBinAddr: 0x100006E80, symSize: 0x1C }
  - { offsetInCU: 0x10E15, offset: 0x2ABCA, size: 0x8, addend: 0x0, symName: __ZNSt3__119ostreambuf_iteratorIcNS_11char_traitsIcEEEC1B7v160006ERNS_13basic_ostreamIcS2_EE, symObjAddr: 0x3510, symBinAddr: 0x1000070DC, symSize: 0x34 }
  - { offsetInCU: 0x10E4C, offset: 0x2AC01, size: 0x8, addend: 0x0, symName: __ZNKSt3__18ios_base5flagsB7v160006Ev, symObjAddr: 0x3544, symBinAddr: 0x100007110, symSize: 0x18 }
  - { offsetInCU: 0x10E73, offset: 0x2AC28, size: 0x8, addend: 0x0, symName: __ZNKSt3__19basic_iosIcNS_11char_traitsIcEEE4fillB7v160006Ev, symObjAddr: 0x355C, symBinAddr: 0x100007128, symSize: 0x64 }
  - { offsetInCU: 0x10E9A, offset: 0x2AC4F, size: 0x8, addend: 0x0, symName: __ZNKSt3__119ostreambuf_iteratorIcNS_11char_traitsIcEEE6failedB7v160006Ev, symObjAddr: 0x35C0, symBinAddr: 0x10000718C, symSize: 0x24 }
  - { offsetInCU: 0x10EBF, offset: 0x2AC74, size: 0x8, addend: 0x0, symName: __ZNSt3__19basic_iosIcNS_11char_traitsIcEEE8setstateB7v160006Ej, symObjAddr: 0x35E4, symBinAddr: 0x1000071B0, symSize: 0x2C }
  - { offsetInCU: 0x10EF3, offset: 0x2ACA8, size: 0x8, addend: 0x0, symName: __ZNKSt3__18ios_base5widthB7v160006Ev, symObjAddr: 0x3610, symBinAddr: 0x1000071DC, symSize: 0x18 }
  - { offsetInCU: 0x10F1A, offset: 0x2ACCF, size: 0x8, addend: 0x0, symName: __ZNSt3__115basic_streambufIcNS_11char_traitsIcEEE5sputnB7v160006EPKcl, symObjAddr: 0x3628, symBinAddr: 0x1000071F4, symSize: 0x3C }
  - { offsetInCU: 0x10F5B, offset: 0x2AD10, size: 0x8, addend: 0x0, symName: __ZNSt3__112basic_stringIcNS_11char_traitsIcEENS_9allocatorIcEEEC1B7v160006Emc, symObjAddr: 0x3664, symBinAddr: 0x100007230, symSize: 0x3C }
  - { offsetInCU: 0x10FA2, offset: 0x2AD57, size: 0x8, addend: 0x0, symName: __ZNKSt3__112basic_stringIcNS_11char_traitsIcEENS_9allocatorIcEEE4dataB7v160006Ev, symObjAddr: 0x36A0, symBinAddr: 0x10000726C, symSize: 0x28 }
  - { offsetInCU: 0x10FC7, offset: 0x2AD7C, size: 0x8, addend: 0x0, symName: __ZNSt3__18ios_base5widthB7v160006El, symObjAddr: 0x36C8, symBinAddr: 0x100007294, symSize: 0x2C }
  - { offsetInCU: 0x1100D, offset: 0x2ADC2, size: 0x8, addend: 0x0, symName: __ZNSt3__112basic_stringIcNS_11char_traitsIcEENS_9allocatorIcEEEC2B7v160006Emc, symObjAddr: 0x36F4, symBinAddr: 0x1000072C0, symSize: 0x54 }
  - { offsetInCU: 0x11054, offset: 0x2AE09, size: 0x8, addend: 0x0, symName: __ZNKSt3__112basic_stringIcNS_11char_traitsIcEENS_9allocatorIcEEE13__get_pointerB7v160006Ev, symObjAddr: 0x375C, symBinAddr: 0x100007328, symSize: 0x54 }
  - { offsetInCU: 0x11079, offset: 0x2AE2E, size: 0x8, addend: 0x0, symName: __ZNKSt3__112basic_stringIcNS_11char_traitsIcEENS_9allocatorIcEEE9__is_longB7v160006Ev, symObjAddr: 0x37B0, symBinAddr: 0x10000737C, symSize: 0x38 }
  - { offsetInCU: 0x1109E, offset: 0x2AE53, size: 0x8, addend: 0x0, symName: __ZNKSt3__112basic_stringIcNS_11char_traitsIcEENS_9allocatorIcEEE18__get_long_pointerB7v160006Ev, symObjAddr: 0x37E8, symBinAddr: 0x1000073B4, symSize: 0x28 }
  - { offsetInCU: 0x110C3, offset: 0x2AE78, size: 0x8, addend: 0x0, symName: __ZNKSt3__112basic_stringIcNS_11char_traitsIcEENS_9allocatorIcEEE19__get_short_pointerB7v160006Ev, symObjAddr: 0x3810, symBinAddr: 0x1000073DC, symSize: 0x28 }
  - { offsetInCU: 0x110E8, offset: 0x2AE9D, size: 0x8, addend: 0x0, symName: __ZNKSt3__117__compressed_pairINS_12basic_stringIcNS_11char_traitsIcEENS_9allocatorIcEEE5__repES5_E5firstB7v160006Ev, symObjAddr: 0x3838, symBinAddr: 0x100007404, symSize: 0x24 }
  - { offsetInCU: 0x1110D, offset: 0x2AEC2, size: 0x8, addend: 0x0, symName: __ZNKSt3__122__compressed_pair_elemINS_12basic_stringIcNS_11char_traitsIcEENS_9allocatorIcEEE5__repELi0ELb0EE5__getB7v160006Ev, symObjAddr: 0x385C, symBinAddr: 0x100007428, symSize: 0x14 }
  - { offsetInCU: 0x11132, offset: 0x2AEE7, size: 0x8, addend: 0x0, symName: __ZNSt3__114pointer_traitsIPKcE10pointer_toB7v160006ERS1_, symObjAddr: 0x3870, symBinAddr: 0x10000743C, symSize: 0x14 }
  - { offsetInCU: 0x11155, offset: 0x2AF0A, size: 0x8, addend: 0x0, symName: __ZNSt3__119ostreambuf_iteratorIcNS_11char_traitsIcEEEC2B7v160006ERNS_13basic_ostreamIcS2_EE, symObjAddr: 0x3884, symBinAddr: 0x100007450, symSize: 0x54 }
  - { offsetInCU: 0x1118C, offset: 0x2AF41, size: 0x8, addend: 0x0, symName: __ZNKSt3__19basic_iosIcNS_11char_traitsIcEEE5rdbufB7v160006Ev, symObjAddr: 0x38D8, symBinAddr: 0x1000074A4, symSize: 0x24 }
  - { offsetInCU: 0x111B3, offset: 0x2AF68, size: 0x8, addend: 0x0, symName: __ZNKSt3__18ios_base5rdbufB7v160006Ev, symObjAddr: 0x38FC, symBinAddr: 0x1000074C8, symSize: 0x18 }
  - { offsetInCU: 0x111D8, offset: 0x2AF8D, size: 0x8, addend: 0x0, symName: __ZNSt3__111char_traitsIcE11eq_int_typeEii, symObjAddr: 0x3914, symBinAddr: 0x1000074E0, symSize: 0x28 }
  - { offsetInCU: 0x11209, offset: 0x2AFBE, size: 0x8, addend: 0x0, symName: __ZNSt3__111char_traitsIcE3eofEv, symObjAddr: 0x393C, symBinAddr: 0x100007508, symSize: 0x8 }
  - { offsetInCU: 0x1121D, offset: 0x2AFD2, size: 0x8, addend: 0x0, symName: __ZNKSt3__19basic_iosIcNS_11char_traitsIcEEE5widenB7v160006Ec, symObjAddr: 0x3944, symBinAddr: 0x100007510, symSize: 0x84 }
  - { offsetInCU: 0x11285, offset: 0x2B03A, size: 0x8, addend: 0x0, symName: __ZNKSt3__15ctypeIcE5widenB7v160006Ec, symObjAddr: 0x39F4, symBinAddr: 0x1000075C0, symSize: 0x38 }
  - { offsetInCU: 0x112B9, offset: 0x2B06E, size: 0x8, addend: 0x0, symName: __ZNSt3__18ios_base8setstateB7v160006Ej, symObjAddr: 0x3A2C, symBinAddr: 0x1000075F8, symSize: 0x34 }
  - { offsetInCU: 0x112EF, offset: 0x2B0A4, size: 0x8, addend: 0x0, symName: __ZN2sf7Vector2IiEC2Eii, symObjAddr: 0x3A60, symBinAddr: 0x10000762C, symSize: 0x2C }
  - { offsetInCU: 0x11336, offset: 0x2B0EB, size: 0x8, addend: 0x0, symName: __ZNSt3__112basic_stringIcNS_11char_traitsIcEENS_9allocatorIcEEEC1B7v160006EOS5_, symObjAddr: 0x3A8C, symBinAddr: 0x100007658, symSize: 0x34 }
  - { offsetInCU: 0x1136E, offset: 0x2B123, size: 0x8, addend: 0x0, symName: __ZNSt3__112basic_stringIcNS_11char_traitsIcEENS_9allocatorIcEEEC2B7v160006EOS5_, symObjAddr: 0x3AC0, symBinAddr: 0x10000768C, symSize: 0x84 }
  - { offsetInCU: 0x113A6, offset: 0x2B15B, size: 0x8, addend: 0x0, symName: __ZNSt3__112basic_stringIcNS_11char_traitsIcEENS_9allocatorIcEEE14__default_initB7v160006Ev, symObjAddr: 0x3B44, symBinAddr: 0x100007710, symSize: 0x40 }
  - { offsetInCU: 0x113CB, offset: 0x2B180, size: 0x8, addend: 0x0, symName: __ZNSt3__117__compressed_pairINS_12basic_stringIcNS_11char_traitsIcEENS_9allocatorIcEEE5__repES5_E5firstB7v160006Ev, symObjAddr: 0x3B98, symBinAddr: 0x100007764, symSize: 0x24 }
  - { offsetInCU: 0x113F0, offset: 0x2B1A5, size: 0x8, addend: 0x0, symName: __ZNSt3__122__compressed_pair_elemINS_12basic_stringIcNS_11char_traitsIcEENS_9allocatorIcEEE5__repELi0ELb0EE5__getB7v160006Ev, symObjAddr: 0x3BBC, symBinAddr: 0x100007788, symSize: 0x14 }
  - { offsetInCU: 0x3B5D, offset: 0x2ED9E, size: 0x8, addend: 0x0, symName: __ZNSt3__17advanceB7v160006IPN2sf7Vector2IiEEmmvEEvRT_T0_, symObjAddr: 0x3110, symBinAddr: 0x10000A1B0, symSize: 0x50 }
  - { offsetInCU: 0x48B8, offset: 0x2FAF9, size: 0x8, addend: 0x0, symName: __ZNSt3__119__debug_db_insert_cB7v160006INS_6vectorIN2sf7Vector2IiEENS_9allocatorIS4_EEEEEEvPT_, symObjAddr: 0xA10, symBinAddr: 0x1000080C4, symSize: 0x10 }
  - { offsetInCU: 0x48E9, offset: 0x2FB2A, size: 0x8, addend: 0x0, symName: __ZNSt3__13maxB7v160006ImEERKT_S3_S3_, symObjAddr: 0x1664, symBinAddr: 0x100008714, symSize: 0x2C }
  - { offsetInCU: 0x492D, offset: 0x2FB6E, size: 0x8, addend: 0x0, symName: __ZNSt3__13minB7v160006ImEERKT_S3_S3_, symObjAddr: 0x1690, symBinAddr: 0x100008740, symSize: 0x2C }
  - { offsetInCU: 0x4B7C, offset: 0x2FDBD, size: 0x8, addend: 0x0, symName: __ZNSt3__13minB7v160006ImNS_6__lessImmEEEERKT_S5_S5_T0_, symObjAddr: 0x171C, symBinAddr: 0x1000087CC, symSize: 0x54 }
  - { offsetInCU: 0x4C12, offset: 0x2FE53, size: 0x8, addend: 0x0, symName: __ZNSt3__120__throw_length_errorB7v160006EPKc, symObjAddr: 0x17F8, symBinAddr: 0x1000088A8, symSize: 0x64 }
  - { offsetInCU: 0x4C3B, offset: 0x2FE7C, size: 0x8, addend: 0x0, symName: __ZNSt3__13maxB7v160006ImNS_6__lessImmEEEERKT_S5_S5_T0_, symObjAddr: 0x18DC, symBinAddr: 0x10000898C, symSize: 0x54 }
  - { offsetInCU: 0x4C96, offset: 0x2FED7, size: 0x8, addend: 0x0, symName: __ZNSt3__119__allocate_at_leastB7v160006INS_9allocatorIN2sf7Vector2IiEEEEEENS_19__allocation_resultINS_16allocator_traitsIT_E7pointerEEERS8_m, symObjAddr: 0x1A40, symBinAddr: 0x100008AF0, symSize: 0x40 }
  - { offsetInCU: 0x4CDA, offset: 0x2FF1B, size: 0x8, addend: 0x0, symName: __ZNSt3__117__libcpp_allocateB7v160006Emm, symObjAddr: 0x1BC4, symBinAddr: 0x100008C74, symSize: 0x28 }
  - { offsetInCU: 0x4D18, offset: 0x2FF59, size: 0x8, addend: 0x0, symName: __ZNSt3__121__libcpp_operator_newB7v160006IJmEEEPvDpT_, symObjAddr: 0x1BEC, symBinAddr: 0x100008C9C, symSize: 0x24 }
  - { offsetInCU: 0x4D52, offset: 0x2FF93, size: 0x8, addend: 0x0, symName: __ZNSt3__142__uninitialized_allocator_move_if_noexceptB7v160006INS_9allocatorIN2sf7Vector2IiEEEENS_16reverse_iteratorIPS4_EES8_S4_vEET1_RT_T0_SC_S9_, symObjAddr: 0x1C74, symBinAddr: 0x100008D24, symSize: 0x78 }
  - { offsetInCU: 0x4DD1, offset: 0x30012, size: 0x8, addend: 0x0, symName: __ZNSt3__14swapB7v160006IPN2sf7Vector2IiEEEENS_9enable_ifIXaasr21is_move_constructibleIT_EE5valuesr18is_move_assignableIS6_EE5valueEvE4typeERS6_S9_, symObjAddr: 0x1D38, symBinAddr: 0x100008DE8, symSize: 0x3C }
  - { offsetInCU: 0x4E22, offset: 0x30063, size: 0x8, addend: 0x0, symName: __ZNSt3__14moveB7v160006INS_16reverse_iteratorIPN2sf7Vector2IiEEEES6_EET0_T_S8_S7_, symObjAddr: 0x1E30, symBinAddr: 0x100008ED0, symSize: 0x78 }
  - { offsetInCU: 0x4E7D, offset: 0x300BE, size: 0x8, addend: 0x0, symName: __ZNSt3__16__moveB7v160006INS_17_ClassicAlgPolicyENS_16reverse_iteratorIPN2sf7Vector2IiEEEES7_S7_EENS_4pairIT0_T2_EES9_T1_SA_, symObjAddr: 0x1EA8, symBinAddr: 0x100008F48, symSize: 0x64 }
  - { offsetInCU: 0x4EEA, offset: 0x3012B, size: 0x8, addend: 0x0, symName: __ZNSt3__123__dispatch_copy_or_moveB7v160006INS_17_ClassicAlgPolicyENS_11__move_loopIS1_EENS_14__move_trivialENS_16reverse_iteratorIPN2sf7Vector2IiEEEESA_SA_EENS_4pairIT2_T4_EESC_T3_SD_, symObjAddr: 0x1F0C, symBinAddr: 0x100008FAC, symSize: 0x64 }
  - { offsetInCU: 0x4F69, offset: 0x301AA, size: 0x8, addend: 0x0, symName: __ZNSt3__121__unwrap_and_dispatchB7v160006INS_10__overloadINS_11__move_loopINS_17_ClassicAlgPolicyEEENS_14__move_trivialEEENS_16reverse_iteratorIPN2sf7Vector2IiEEEESC_SC_Li0EEENS_4pairIT0_T2_EESE_T1_SF_, symObjAddr: 0x1F70, symBinAddr: 0x100009010, symSize: 0x12C }
  - { offsetInCU: 0x4FFB, offset: 0x3023C, size: 0x8, addend: 0x0, symName: __ZNSt3__114__unwrap_rangeB7v160006INS_16reverse_iteratorIPN2sf7Vector2IiEEEES6_EENS_4pairIT0_S8_EET_SA_, symObjAddr: 0x209C, symBinAddr: 0x10000913C, symSize: 0x84 }
  - { offsetInCU: 0x5178, offset: 0x303B9, size: 0x8, addend: 0x0, symName: __ZNSt3__113__unwrap_iterB7v160006INS_16reverse_iteratorIPN2sf7Vector2IiEEEENS_18__unwrap_iter_implIS6_Lb0EEELi0EEEDTclsrT0_8__unwrapclsr3stdE7declvalIT_EEEESA_, symObjAddr: 0x21C0, symBinAddr: 0x100009260, symSize: 0x44 }
  - { offsetInCU: 0x51BE, offset: 0x303FF, size: 0x8, addend: 0x0, symName: __ZNSt3__19make_pairB7v160006INS_16reverse_iteratorIPN2sf7Vector2IiEEEES6_EENS_4pairINS_18__unwrap_ref_decayIT_E4typeENS8_IT0_E4typeEEEOS9_OSC_, symObjAddr: 0x2204, symBinAddr: 0x1000092A4, symSize: 0x38 }
  - { offsetInCU: 0x520E, offset: 0x3044F, size: 0x8, addend: 0x0, symName: __ZNSt3__114__rewrap_rangeB7v160006INS_16reverse_iteratorIPN2sf7Vector2IiEEEES6_EET_S7_T0_, symObjAddr: 0x223C, symBinAddr: 0x1000092DC, symSize: 0x5C }
  - { offsetInCU: 0x525B, offset: 0x3049C, size: 0x8, addend: 0x0, symName: __ZNSt3__113__rewrap_iterB7v160006INS_16reverse_iteratorIPN2sf7Vector2IiEEEES6_NS_18__unwrap_iter_implIS6_Lb0EEEEET_S9_T0_, symObjAddr: 0x2298, symBinAddr: 0x100009338, symSize: 0x74 }
  - { offsetInCU: 0x52B1, offset: 0x304F2, size: 0x8, addend: 0x0, symName: __ZNSt3__1neB7v160006IPN2sf7Vector2IiEES4_EEbRKNS_16reverse_iteratorIT_EERKNS5_IT0_EE, symObjAddr: 0x230C, symBinAddr: 0x1000093AC, symSize: 0x48 }
  - { offsetInCU: 0x53B1, offset: 0x305F2, size: 0x8, addend: 0x0, symName: __ZNSt3__122__make_exception_guardB7v160006INS_6vectorIN2sf7Vector2IiEENS_9allocatorIS4_EEE16__destroy_vectorEEENS_28__exception_guard_exceptionsIT_EESA_, symObjAddr: 0x27F8, symBinAddr: 0x100009898, symSize: 0x40 }
  - { offsetInCU: 0x53E7, offset: 0x30628, size: 0x8, addend: 0x0, symName: __ZNSt3__130__uninitialized_allocator_copyB7v160006INS_9allocatorIN2sf7Vector2IiEEEEPS4_S6_S6_EET2_RT_T0_T1_S7_, symObjAddr: 0x2A6C, symBinAddr: 0x100009B0C, symSize: 0xF4 }
  - { offsetInCU: 0x5488, offset: 0x306C9, size: 0x8, addend: 0x0, symName: __ZNSt3__122__make_exception_guardB7v160006INS_29_AllocatorDestroyRangeReverseINS_9allocatorIN2sf7Vector2IiEEEEPS5_EEEENS_28__exception_guard_exceptionsIT_EESA_, symObjAddr: 0x2B60, symBinAddr: 0x100009C00, symSize: 0x4C }
  - { offsetInCU: 0x54BF, offset: 0x30700, size: 0x8, addend: 0x0, symName: __ZNSt3__119__allocator_destroyB7v160006INS_9allocatorIN2sf7Vector2IiEEEENS_16reverse_iteratorIPS4_EES8_EEvRT_T0_T1_, symObjAddr: 0x2DE8, symBinAddr: 0x100009E88, symSize: 0x70 }
  - { offsetInCU: 0x5522, offset: 0x30763, size: 0x8, addend: 0x0, symName: __ZNSt3__112__to_addressB7v160006INS_16reverse_iteratorIPN2sf7Vector2IiEEEEvEENS_5decayIDTclsr19__to_address_helperIT_EE6__callclsr3stdE7declvalIRKS8_EEEEE4typeESA_, symObjAddr: 0x2E58, symBinAddr: 0x100009EF8, symSize: 0x24 }
  - { offsetInCU: 0x5583, offset: 0x307C4, size: 0x8, addend: 0x0, symName: __ZNSt3__18distanceB7v160006IPN2sf7Vector2IiEEEENS_15iterator_traitsIT_E15difference_typeES6_S6_, symObjAddr: 0x30E4, symBinAddr: 0x10000A184, symSize: 0x2C }
  - { offsetInCU: 0x55C7, offset: 0x30808, size: 0x8, addend: 0x0, symName: __ZNSt3__14copyB7v160006IPN2sf7Vector2IiEES4_EET0_T_S6_S5_, symObjAddr: 0x3160, symBinAddr: 0x10000A200, symSize: 0x40 }
  - { offsetInCU: 0x5622, offset: 0x30863, size: 0x8, addend: 0x0, symName: __ZNSt3__110__distanceB7v160006IPN2sf7Vector2IiEEEENS_15iterator_traitsIT_E15difference_typeES6_S6_NS_26random_access_iterator_tagE, symObjAddr: 0x328C, symBinAddr: 0x10000A2A0, symSize: 0x28 }
  - { offsetInCU: 0x5670, offset: 0x308B1, size: 0x8, addend: 0x0, symName: __ZNSt3__121__convert_to_integralB7v160006Em, symObjAddr: 0x32B4, symBinAddr: 0x10000A2C8, symSize: 0x14 }
  - { offsetInCU: 0x569C, offset: 0x308DD, size: 0x8, addend: 0x0, symName: __ZNSt3__19__advanceB7v160006IPN2sf7Vector2IiEEEEvRT_NS_15iterator_traitsIS5_E15difference_typeENS_26random_access_iterator_tagE, symObjAddr: 0x32C8, symBinAddr: 0x10000A2DC, symSize: 0x28 }
  - { offsetInCU: 0x56E6, offset: 0x30927, size: 0x8, addend: 0x0, symName: __ZNSt3__16__copyB7v160006INS_17_ClassicAlgPolicyEPN2sf7Vector2IiEES5_S5_EENS_4pairIT0_T2_EES7_T1_S8_, symObjAddr: 0x32F0, symBinAddr: 0x10000A304, symSize: 0x44 }
  - { offsetInCU: 0x5753, offset: 0x30994, size: 0x8, addend: 0x0, symName: __ZNSt3__123__dispatch_copy_or_moveB7v160006INS_17_ClassicAlgPolicyENS_11__copy_loopIS1_EENS_14__copy_trivialEPN2sf7Vector2IiEES8_S8_EENS_4pairIT2_T4_EESA_T3_SB_, symObjAddr: 0x3334, symBinAddr: 0x10000A348, symSize: 0x44 }
  - { offsetInCU: 0x57D2, offset: 0x30A13, size: 0x8, addend: 0x0, symName: __ZNSt3__121__unwrap_and_dispatchB7v160006INS_10__overloadINS_11__copy_loopINS_17_ClassicAlgPolicyEEENS_14__copy_trivialEEEPN2sf7Vector2IiEESA_SA_Li0EEENS_4pairIT0_T2_EESC_T1_SD_, symObjAddr: 0x3378, symBinAddr: 0x10000A38C, symSize: 0xB4 }
  - { offsetInCU: 0x5862, offset: 0x30AA3, size: 0x8, addend: 0x0, symName: __ZNSt3__114__unwrap_rangeB7v160006IPN2sf7Vector2IiEES4_EENS_4pairIT0_S6_EET_S8_, symObjAddr: 0x342C, symBinAddr: 0x10000A440, symSize: 0x60 }
  - { offsetInCU: 0x59FB, offset: 0x30C3C, size: 0x8, addend: 0x0, symName: __ZNSt3__113__unwrap_iterB7v160006IPN2sf7Vector2IiEENS_18__unwrap_iter_implIS4_Lb1EEELi0EEEDTclsrT0_8__unwrapclsr3stdE7declvalIT_EEEES8_, symObjAddr: 0x34D4, symBinAddr: 0x10000A4E8, symSize: 0x24 }
  - { offsetInCU: 0x5A41, offset: 0x30C82, size: 0x8, addend: 0x0, symName: __ZNSt3__19make_pairB7v160006IPN2sf7Vector2IiEES4_EENS_4pairINS_18__unwrap_ref_decayIT_E4typeENS6_IT0_E4typeEEEOS7_OSA_, symObjAddr: 0x34F8, symBinAddr: 0x10000A50C, symSize: 0x38 }
  - { offsetInCU: 0x5A91, offset: 0x30CD2, size: 0x8, addend: 0x0, symName: __ZNSt3__114__rewrap_rangeB7v160006IPN2sf7Vector2IiEES4_EET_S5_T0_, symObjAddr: 0x3530, symBinAddr: 0x10000A544, symSize: 0x2C }
  - { offsetInCU: 0x5ADE, offset: 0x30D1F, size: 0x8, addend: 0x0, symName: __ZNSt3__113__rewrap_iterB7v160006IPN2sf7Vector2IiEES4_NS_18__unwrap_iter_implIS4_Lb1EEEEET_S7_T0_, symObjAddr: 0x355C, symBinAddr: 0x10000A570, symSize: 0x3C }
  - { offsetInCU: 0x5B34, offset: 0x30D75, size: 0x8, addend: 0x0, symName: __ZNSt3__119__copy_trivial_implB7v160006IN2sf7Vector2IiEES3_EENS_4pairIPT_PT0_EES6_S6_S8_, symObjAddr: 0x3598, symBinAddr: 0x10000A5AC, symSize: 0x84 }
  - { offsetInCU: 0x5B9D, offset: 0x30DDE, size: 0x8, addend: 0x0, symName: __ZNSt3__19make_pairB7v160006IRPN2sf7Vector2IiEES4_EENS_4pairINS_18__unwrap_ref_decayIT_E4typeENS7_IT0_E4typeEEEOS8_OSB_, symObjAddr: 0x361C, symBinAddr: 0x10000A630, symSize: 0x38 }
  - { offsetInCU: 0x5E7C, offset: 0x310BD, size: 0x8, addend: 0x0, symName: __ZSt28__throw_bad_array_new_lengthB7v160006v, symObjAddr: 0x1B90, symBinAddr: 0x100008C40, symSize: 0x34 }
  - { offsetInCU: 0x614E, offset: 0x3138F, size: 0x8, addend: 0x0, symName: __ZNSt3__16vectorIN2sf7Vector2IiEENS_9allocatorIS3_EEE26__swap_out_circular_bufferERNS_14__split_bufferIS3_RS5_EE, symObjAddr: 0x14A4, symBinAddr: 0x100008554, symSize: 0x118 }
  - { offsetInCU: 0x804E, offset: 0x3328F, size: 0x8, addend: 0x0, symName: __ZN5SnakeC2Ev, symObjAddr: 0x0, symBinAddr: 0x10000779C, symSize: 0x7C }
  - { offsetInCU: 0x8078, offset: 0x332B9, size: 0x8, addend: 0x0, symName: __ZNSt3__16vectorIN2sf7Vector2IiEENS_9allocatorIS3_EEEC1B7v160006Ev, symObjAddr: 0x7C, symBinAddr: 0x100007818, symSize: 0x2C }
  - { offsetInCU: 0x80A6, offset: 0x332E7, size: 0x8, addend: 0x0, symName: __ZNSt3__16vectorIN2sf7Vector2IiEENS_9allocatorIS3_EEE12emplace_backIJiiEEEvDpOT_, symObjAddr: 0xA8, symBinAddr: 0x100007844, symSize: 0x78 }
  - { offsetInCU: 0x80FB, offset: 0x3333C, size: 0x8, addend: 0x0, symName: __ZN5SnakeC1Ev, symObjAddr: 0x14C, symBinAddr: 0x1000078BC, symSize: 0x2C }
  - { offsetInCU: 0x8125, offset: 0x33366, size: 0x8, addend: 0x0, symName: __ZN5Snake15changeDirectionE9Direction, symObjAddr: 0x178, symBinAddr: 0x1000078E8, symSize: 0xD8 }
  - { offsetInCU: 0x815A, offset: 0x3339B, size: 0x8, addend: 0x0, symName: __ZN5Snake4moveEv, symObjAddr: 0x250, symBinAddr: 0x1000079C0, symSize: 0x17C }
  - { offsetInCU: 0x81AC, offset: 0x333ED, size: 0x8, addend: 0x0, symName: __ZNSt3__16vectorIN2sf7Vector2IiEENS_9allocatorIS3_EEEC1ERKS6_, symObjAddr: 0x3DC, symBinAddr: 0x100007B4C, symSize: 0x34 }
  - { offsetInCU: 0x81E6, offset: 0x33427, size: 0x8, addend: 0x0, symName: __ZNSt3__16vectorIN2sf7Vector2IiEENS_9allocatorIS3_EEEixB7v160006Em, symObjAddr: 0x438, symBinAddr: 0x100007B80, symSize: 0x24 }
  - { offsetInCU: 0x821C, offset: 0x3345D, size: 0x8, addend: 0x0, symName: __ZNSt3__16vectorIN2sf7Vector2IiEENS_9allocatorIS3_EEEaSB7v160006ERKS6_, symObjAddr: 0x45C, symBinAddr: 0x100007BA4, symSize: 0x68 }
  - { offsetInCU: 0x8252, offset: 0x33493, size: 0x8, addend: 0x0, symName: __ZN5Snake13modifiedSnakeEv, symObjAddr: 0x4C4, symBinAddr: 0x100007C0C, symSize: 0x100 }
  - { offsetInCU: 0x829B, offset: 0x334DC, size: 0x8, addend: 0x0, symName: __ZNSt3__16vectorIN2sf7Vector2IiEENS_9allocatorIS3_EEE6resizeEm, symObjAddr: 0x628, symBinAddr: 0x100007D0C, symSize: 0x94 }
  - { offsetInCU: 0x82E1, offset: 0x33522, size: 0x8, addend: 0x0, symName: __ZNK5Snake13isOutOfBoundsEv, symObjAddr: 0x6BC, symBinAddr: 0x100007DA0, symSize: 0xC0 }
  - { offsetInCU: 0x8308, offset: 0x33549, size: 0x8, addend: 0x0, symName: __ZN5Snake4growEv, symObjAddr: 0x7A0, symBinAddr: 0x100007E60, symSize: 0x34 }
  - { offsetInCU: 0x832F, offset: 0x33570, size: 0x8, addend: 0x0, symName: __ZNSt3__16vectorIN2sf7Vector2IiEENS_9allocatorIS3_EEE9push_backB7v160006ERKS3_, symObjAddr: 0x7D4, symBinAddr: 0x100007E94, symSize: 0x6C }
  - { offsetInCU: 0x8365, offset: 0x335A6, size: 0x8, addend: 0x0, symName: __ZNSt3__16vectorIN2sf7Vector2IiEENS_9allocatorIS3_EEE4backB7v160006Ev, symObjAddr: 0x840, symBinAddr: 0x100007F00, symSize: 0x1C }
  - { offsetInCU: 0x838A, offset: 0x335CB, size: 0x8, addend: 0x0, symName: __ZNK5Snake7getBodyEv, symObjAddr: 0x85C, symBinAddr: 0x100007F1C, symSize: 0x14 }
  - { offsetInCU: 0x83B1, offset: 0x335F2, size: 0x8, addend: 0x0, symName: __ZNK5Snake15getHeadPositionEv, symObjAddr: 0x870, symBinAddr: 0x100007F30, symSize: 0x34 }
  - { offsetInCU: 0x83D8, offset: 0x33619, size: 0x8, addend: 0x0, symName: __ZNK5Snake15isSelfCollisionEv, symObjAddr: 0x8A4, symBinAddr: 0x100007F64, symSize: 0xCC }
  - { offsetInCU: 0x841C, offset: 0x3365D, size: 0x8, addend: 0x0, symName: __ZNSt3__16vectorIN2sf7Vector2IiEENS_9allocatorIS3_EEEC2B7v160006Ev, symObjAddr: 0x970, symBinAddr: 0x100008030, symSize: 0x58 }
  - { offsetInCU: 0x844F, offset: 0x33690, size: 0x8, addend: 0x0, symName: __ZNSt3__117__compressed_pairIPN2sf7Vector2IiEENS_9allocatorIS3_EEEC1B7v160006IDnNS_18__default_init_tagEEEOT_OT0_, symObjAddr: 0x9C8, symBinAddr: 0x100008088, symSize: 0x3C }
  - { offsetInCU: 0x84A6, offset: 0x336E7, size: 0x8, addend: 0x0, symName: __ZNSt3__117__compressed_pairIPN2sf7Vector2IiEENS_9allocatorIS3_EEEC2B7v160006IDnNS_18__default_init_tagEEEOT_OT0_, symObjAddr: 0xA20, symBinAddr: 0x1000080D4, symSize: 0x40 }
  - { offsetInCU: 0x84FE, offset: 0x3373F, size: 0x8, addend: 0x0, symName: __ZNSt3__122__compressed_pair_elemIPN2sf7Vector2IiEELi0ELb0EEC2B7v160006IDnvEEOT_, symObjAddr: 0xA60, symBinAddr: 0x100008114, symSize: 0x1C }
  - { offsetInCU: 0x853D, offset: 0x3377E, size: 0x8, addend: 0x0, symName: __ZNSt3__122__compressed_pair_elemINS_9allocatorIN2sf7Vector2IiEEEELi1ELb1EEC2B7v160006ENS_18__default_init_tagE, symObjAddr: 0xA7C, symBinAddr: 0x100008130, symSize: 0x2C }
  - { offsetInCU: 0x8571, offset: 0x337B2, size: 0x8, addend: 0x0, symName: __ZNSt3__19allocatorIN2sf7Vector2IiEEEC2B7v160006Ev, symObjAddr: 0xAA8, symBinAddr: 0x10000815C, symSize: 0x2C }
  - { offsetInCU: 0x859B, offset: 0x337DC, size: 0x8, addend: 0x0, symName: __ZNSt3__116__non_trivial_ifILb1ENS_9allocatorIN2sf7Vector2IiEEEEEC2B7v160006Ev, symObjAddr: 0xAD4, symBinAddr: 0x100008188, symSize: 0x14 }
  - { offsetInCU: 0x85C3, offset: 0x33804, size: 0x8, addend: 0x0, symName: __ZNSt3__16vectorIN2sf7Vector2IiEENS_9allocatorIS3_EEE22__construct_one_at_endB7v160006IJiiEEEvDpOT_, symObjAddr: 0x104C, symBinAddr: 0x10000819C, symSize: 0x98 }
  - { offsetInCU: 0x8625, offset: 0x33866, size: 0x8, addend: 0x0, symName: __ZNSt3__16vectorIN2sf7Vector2IiEENS_9allocatorIS3_EEE24__emplace_back_slow_pathIJiiEEEvDpOT_, symObjAddr: 0x10E4, symBinAddr: 0x100008234, symSize: 0xE0 }
  - { offsetInCU: 0x86B3, offset: 0x338F4, size: 0x8, addend: 0x0, symName: __ZNSt3__16vectorIN2sf7Vector2IiEENS_9allocatorIS3_EEE21_ConstructTransactionC1B7v160006ERS6_m, symObjAddr: 0x11FC, symBinAddr: 0x100008314, symSize: 0x3C }
  - { offsetInCU: 0x86FB, offset: 0x3393C, size: 0x8, addend: 0x0, symName: __ZNSt3__116allocator_traitsINS_9allocatorIN2sf7Vector2IiEEEEE9constructB7v160006IS4_JiiEvEEvRS5_PT_DpOT0_, symObjAddr: 0x1238, symBinAddr: 0x100008350, symSize: 0x3C }
  - { offsetInCU: 0x8765, offset: 0x339A6, size: 0x8, addend: 0x0, symName: __ZNSt3__16vectorIN2sf7Vector2IiEENS_9allocatorIS3_EEE21_ConstructTransactionD1B7v160006Ev, symObjAddr: 0x1274, symBinAddr: 0x10000838C, symSize: 0x2C }
  - { offsetInCU: 0x878F, offset: 0x339D0, size: 0x8, addend: 0x0, symName: __ZNSt3__16vectorIN2sf7Vector2IiEENS_9allocatorIS3_EEE21_ConstructTransactionC2B7v160006ERS6_m, symObjAddr: 0x12A0, symBinAddr: 0x1000083B8, symSize: 0x44 }
  - { offsetInCU: 0x87D5, offset: 0x33A16, size: 0x8, addend: 0x0, symName: __ZNSt3__19allocatorIN2sf7Vector2IiEEE9constructB7v160006IS3_JiiEEEvPT_DpOT0_, symObjAddr: 0x12E4, symBinAddr: 0x1000083FC, symSize: 0x40 }
  - { offsetInCU: 0x883D, offset: 0x33A7E, size: 0x8, addend: 0x0, symName: __ZNSt3__16vectorIN2sf7Vector2IiEENS_9allocatorIS3_EEE21_ConstructTransactionD2B7v160006Ev, symObjAddr: 0x138C, symBinAddr: 0x10000843C, symSize: 0x20 }
  - { offsetInCU: 0x8864, offset: 0x33AA5, size: 0x8, addend: 0x0, symName: __ZNKSt3__16vectorIN2sf7Vector2IiEENS_9allocatorIS3_EEE11__recommendB7v160006Em, symObjAddr: 0x13AC, symBinAddr: 0x10000845C, symSize: 0xB4 }
  - { offsetInCU: 0x88BA, offset: 0x33AFB, size: 0x8, addend: 0x0, symName: __ZNSt3__114__split_bufferIN2sf7Vector2IiEERNS_9allocatorIS3_EEEC1EmmS6_, symObjAddr: 0x1460, symBinAddr: 0x100008510, symSize: 0x44 }
  - { offsetInCU: 0x890F, offset: 0x33B50, size: 0x8, addend: 0x0, symName: __ZNSt3__114__split_bufferIN2sf7Vector2IiEERNS_9allocatorIS3_EEED1Ev, symObjAddr: 0x15BC, symBinAddr: 0x10000866C, symSize: 0x2C }
  - { offsetInCU: 0x893A, offset: 0x33B7B, size: 0x8, addend: 0x0, symName: __ZNKSt3__16vectorIN2sf7Vector2IiEENS_9allocatorIS3_EEE8max_sizeEv, symObjAddr: 0x15E8, symBinAddr: 0x100008698, symSize: 0x60 }
  - { offsetInCU: 0x8962, offset: 0x33BA3, size: 0x8, addend: 0x0, symName: __ZNKSt3__16vectorIN2sf7Vector2IiEENS_9allocatorIS3_EEE20__throw_length_errorB7v160006Ev, symObjAddr: 0x1648, symBinAddr: 0x1000086F8, symSize: 0x1C }
  - { offsetInCU: 0x8991, offset: 0x33BD2, size: 0x8, addend: 0x0, symName: __ZNSt3__116allocator_traitsINS_9allocatorIN2sf7Vector2IiEEEEE8max_sizeB7v160006IS5_vEEmRKS5_, symObjAddr: 0x16BC, symBinAddr: 0x10000876C, symSize: 0x24 }
  - { offsetInCU: 0x89BF, offset: 0x33C00, size: 0x8, addend: 0x0, symName: __ZNKSt3__16vectorIN2sf7Vector2IiEENS_9allocatorIS3_EEE7__allocB7v160006Ev, symObjAddr: 0x16E0, symBinAddr: 0x100008790, symSize: 0x28 }
  - { offsetInCU: 0x89E4, offset: 0x33C25, size: 0x8, addend: 0x0, symName: __ZNSt3__114numeric_limitsIlE3maxB7v160006Ev, symObjAddr: 0x1708, symBinAddr: 0x1000087B8, symSize: 0x14 }
  - { offsetInCU: 0x8A0B, offset: 0x33C4C, size: 0x8, addend: 0x0, symName: __ZNKSt3__16__lessImmEclB7v160006ERKmS3_, symObjAddr: 0x1770, symBinAddr: 0x100008820, symSize: 0x34 }
  - { offsetInCU: 0x8A4C, offset: 0x33C8D, size: 0x8, addend: 0x0, symName: __ZNKSt3__19allocatorIN2sf7Vector2IiEEE8max_sizeB7v160006Ev, symObjAddr: 0x17A4, symBinAddr: 0x100008854, symSize: 0x14 }
  - { offsetInCU: 0x8A72, offset: 0x33CB3, size: 0x8, addend: 0x0, symName: __ZNKSt3__117__compressed_pairIPN2sf7Vector2IiEENS_9allocatorIS3_EEE6secondB7v160006Ev, symObjAddr: 0x17B8, symBinAddr: 0x100008868, symSize: 0x24 }
  - { offsetInCU: 0x8A96, offset: 0x33CD7, size: 0x8, addend: 0x0, symName: __ZNKSt3__122__compressed_pair_elemINS_9allocatorIN2sf7Vector2IiEEEELi1ELb1EE5__getB7v160006Ev, symObjAddr: 0x17DC, symBinAddr: 0x10000888C, symSize: 0x14 }
  - { offsetInCU: 0x8ABC, offset: 0x33CFD, size: 0x8, addend: 0x0, symName: __ZNSt3__123__libcpp_numeric_limitsIlLb1EE3maxB7v160006Ev, symObjAddr: 0x17F0, symBinAddr: 0x1000088A0, symSize: 0x8 }
  - { offsetInCU: 0x8ACF, offset: 0x33D10, size: 0x8, addend: 0x0, symName: __ZNSt12length_errorC1B7v160006EPKc, symObjAddr: 0x185C, symBinAddr: 0x10000890C, symSize: 0x34 }
  - { offsetInCU: 0x8B06, offset: 0x33D47, size: 0x8, addend: 0x0, symName: __ZNSt12length_errorC2B7v160006EPKc, symObjAddr: 0x1890, symBinAddr: 0x100008940, symSize: 0x4C }
  - { offsetInCU: 0x8B3D, offset: 0x33D7E, size: 0x8, addend: 0x0, symName: __ZNSt3__114__split_bufferIN2sf7Vector2IiEERNS_9allocatorIS3_EEEC2EmmS6_, symObjAddr: 0x1930, symBinAddr: 0x1000089E0, symSize: 0xD4 }
  - { offsetInCU: 0x8BB1, offset: 0x33DF2, size: 0x8, addend: 0x0, symName: __ZNSt3__117__compressed_pairIPN2sf7Vector2IiEERNS_9allocatorIS3_EEEC1B7v160006IDnS7_EEOT_OT0_, symObjAddr: 0x1A04, symBinAddr: 0x100008AB4, symSize: 0x3C }
  - { offsetInCU: 0x8C09, offset: 0x33E4A, size: 0x8, addend: 0x0, symName: __ZNSt3__114__split_bufferIN2sf7Vector2IiEERNS_9allocatorIS3_EEE7__allocB7v160006Ev, symObjAddr: 0x1A80, symBinAddr: 0x100008B30, symSize: 0x28 }
  - { offsetInCU: 0x8C2E, offset: 0x33E6F, size: 0x8, addend: 0x0, symName: __ZNSt3__114__split_bufferIN2sf7Vector2IiEERNS_9allocatorIS3_EEE9__end_capB7v160006Ev, symObjAddr: 0x1AA8, symBinAddr: 0x100008B58, symSize: 0x28 }
  - { offsetInCU: 0x8C52, offset: 0x33E93, size: 0x8, addend: 0x0, symName: __ZNSt3__117__compressed_pairIPN2sf7Vector2IiEERNS_9allocatorIS3_EEEC2B7v160006IDnS7_EEOT_OT0_, symObjAddr: 0x1AD0, symBinAddr: 0x100008B80, symSize: 0x48 }
  - { offsetInCU: 0x8CAA, offset: 0x33EEB, size: 0x8, addend: 0x0, symName: __ZNSt3__122__compressed_pair_elemIRNS_9allocatorIN2sf7Vector2IiEEEELi1ELb0EEC2B7v160006IS6_vEEOT_, symObjAddr: 0x1B18, symBinAddr: 0x100008BC8, symSize: 0x20 }
  - { offsetInCU: 0x8CEA, offset: 0x33F2B, size: 0x8, addend: 0x0, symName: __ZNSt3__19allocatorIN2sf7Vector2IiEEE8allocateB7v160006Em, symObjAddr: 0x1B38, symBinAddr: 0x100008BE8, symSize: 0x58 }
  - { offsetInCU: 0x8D1D, offset: 0x33F5E, size: 0x8, addend: 0x0, symName: __ZNSt3__117__compressed_pairIPN2sf7Vector2IiEERNS_9allocatorIS3_EEE6secondB7v160006Ev, symObjAddr: 0x1C10, symBinAddr: 0x100008CC0, symSize: 0x28 }
  - { offsetInCU: 0x8D41, offset: 0x33F82, size: 0x8, addend: 0x0, symName: __ZNSt3__122__compressed_pair_elemIRNS_9allocatorIN2sf7Vector2IiEEEELi1ELb0EE5__getB7v160006Ev, symObjAddr: 0x1C38, symBinAddr: 0x100008CE8, symSize: 0x18 }
  - { offsetInCU: 0x8D67, offset: 0x33FA8, size: 0x8, addend: 0x0, symName: __ZNSt3__117__compressed_pairIPN2sf7Vector2IiEERNS_9allocatorIS3_EEE5firstB7v160006Ev, symObjAddr: 0x1C50, symBinAddr: 0x100008D00, symSize: 0x24 }
  - { offsetInCU: 0x8D8B, offset: 0x33FCC, size: 0x8, addend: 0x0, symName: __ZNSt3__116reverse_iteratorIPN2sf7Vector2IiEEEC1B7v160006ES4_, symObjAddr: 0x1CEC, symBinAddr: 0x100008D9C, symSize: 0x34 }
  - { offsetInCU: 0x8DC2, offset: 0x34003, size: 0x8, addend: 0x0, symName: __ZNKSt3__116reverse_iteratorIPN2sf7Vector2IiEEE4baseB7v160006Ev, symObjAddr: 0x1D20, symBinAddr: 0x100008DD0, symSize: 0x18 }
  - { offsetInCU: 0x8DE8, offset: 0x34029, size: 0x8, addend: 0x0, symName: __ZNKSt3__16vectorIN2sf7Vector2IiEENS_9allocatorIS3_EEE14__annotate_newB7v160006Em, symObjAddr: 0x1D74, symBinAddr: 0x100008E24, symSize: 0xAC }
  - { offsetInCU: 0x8E3F, offset: 0x34080, size: 0x8, addend: 0x0, symName: __ZNKSt3__111__move_loopINS_17_ClassicAlgPolicyEEclB7v160006INS_16reverse_iteratorIPN2sf7Vector2IiEEEES9_S9_EENS_4pairIT_T1_EESB_T0_SC_, symObjAddr: 0x2120, symBinAddr: 0x1000091C0, symSize: 0xA0 }
  - { offsetInCU: 0x8EAE, offset: 0x340EF, size: 0x8, addend: 0x0, symName: __ZNSt3__18_IterOpsINS_17_ClassicAlgPolicyEE11__iter_moveB7v160006IRNS_16reverse_iteratorIPN2sf7Vector2IiEEEEEENS_9enable_ifIXsr12is_referenceIDTdeclsr3stdE7declvalIRT_EEEEE5valueEDTclsr3stdE4movedeclsr3stdE7declvalISD_EEEEE4typeEOSC_, symObjAddr: 0x2354, symBinAddr: 0x1000093F4, symSize: 0x28 }
  - { offsetInCU: 0x8ED9, offset: 0x3411A, size: 0x8, addend: 0x0, symName: __ZNKSt3__116reverse_iteratorIPN2sf7Vector2IiEEEdeB7v160006Ev, symObjAddr: 0x237C, symBinAddr: 0x10000941C, symSize: 0x28 }
  - { offsetInCU: 0x8F0C, offset: 0x3414D, size: 0x8, addend: 0x0, symName: __ZNSt3__116reverse_iteratorIPN2sf7Vector2IiEEEppB7v160006Ev, symObjAddr: 0x23A4, symBinAddr: 0x100009444, symSize: 0x20 }
  - { offsetInCU: 0x8F32, offset: 0x34173, size: 0x8, addend: 0x0, symName: __ZNSt3__18_IterOpsINS_17_ClassicAlgPolicyEE25__validate_iter_referenceB7v160006IRNS_16reverse_iteratorIPN2sf7Vector2IiEEEEEEvv, symObjAddr: 0x23C4, symBinAddr: 0x100009464, symSize: 0x4 }
  - { offsetInCU: 0x8F50, offset: 0x34191, size: 0x8, addend: 0x0, symName: __ZNSt3__118__unwrap_iter_implINS_16reverse_iteratorIPN2sf7Vector2IiEEEELb0EE8__unwrapB7v160006ES6_, symObjAddr: 0x23C8, symBinAddr: 0x100009468, symSize: 0x24 }
  - { offsetInCU: 0x8F77, offset: 0x341B8, size: 0x8, addend: 0x0, symName: __ZNSt3__14pairINS_16reverse_iteratorIPN2sf7Vector2IiEEEES6_EC1B7v160006IS6_S6_LPv0EEEOT_OT0_, symObjAddr: 0x23EC, symBinAddr: 0x10000948C, symSize: 0x3C }
  - { offsetInCU: 0x8FD6, offset: 0x34217, size: 0x8, addend: 0x0, symName: __ZNSt3__14pairINS_16reverse_iteratorIPN2sf7Vector2IiEEEES6_EC2B7v160006IS6_S6_LPv0EEEOT_OT0_, symObjAddr: 0x2428, symBinAddr: 0x1000094C8, symSize: 0x34 }
  - { offsetInCU: 0x9033, offset: 0x34274, size: 0x8, addend: 0x0, symName: __ZNSt3__118__unwrap_iter_implINS_16reverse_iteratorIPN2sf7Vector2IiEEEELb0EE8__rewrapB7v160006ES6_S6_, symObjAddr: 0x245C, symBinAddr: 0x1000094FC, symSize: 0x2C }
  - { offsetInCU: 0x9061, offset: 0x342A2, size: 0x8, addend: 0x0, symName: __ZNSt3__116reverse_iteratorIPN2sf7Vector2IiEEEC2B7v160006ES4_, symObjAddr: 0x2488, symBinAddr: 0x100009528, symSize: 0x28 }
  - { offsetInCU: 0x9096, offset: 0x342D7, size: 0x8, addend: 0x0, symName: __ZNSt3__114__split_bufferIN2sf7Vector2IiEERNS_9allocatorIS3_EEED2Ev, symObjAddr: 0x24B0, symBinAddr: 0x100009550, symSize: 0x8C }
  - { offsetInCU: 0x90C2, offset: 0x34303, size: 0x8, addend: 0x0, symName: __ZNSt3__114__split_bufferIN2sf7Vector2IiEERNS_9allocatorIS3_EEE5clearB7v160006Ev, symObjAddr: 0x253C, symBinAddr: 0x1000095DC, symSize: 0x28 }
  - { offsetInCU: 0x90E7, offset: 0x34328, size: 0x8, addend: 0x0, symName: __ZNKSt3__114__split_bufferIN2sf7Vector2IiEERNS_9allocatorIS3_EEE8capacityB7v160006Ev, symObjAddr: 0x2564, symBinAddr: 0x100009604, symSize: 0x40 }
  - { offsetInCU: 0x910C, offset: 0x3434D, size: 0x8, addend: 0x0, symName: __ZNSt3__114__split_bufferIN2sf7Vector2IiEERNS_9allocatorIS3_EEE17__destruct_at_endB7v160006EPS3_, symObjAddr: 0x25A4, symBinAddr: 0x100009644, symSize: 0x2C }
  - { offsetInCU: 0x913E, offset: 0x3437F, size: 0x8, addend: 0x0, symName: __ZNSt3__114__split_bufferIN2sf7Vector2IiEERNS_9allocatorIS3_EEE17__destruct_at_endB7v160006EPS3_NS_17integral_constantIbLb0EEE, symObjAddr: 0x25D0, symBinAddr: 0x100009670, symSize: 0x80 }
  - { offsetInCU: 0x917F, offset: 0x343C0, size: 0x8, addend: 0x0, symName: __ZNKSt3__114__split_bufferIN2sf7Vector2IiEERNS_9allocatorIS3_EEE9__end_capB7v160006Ev, symObjAddr: 0x2650, symBinAddr: 0x1000096F0, symSize: 0x28 }
  - { offsetInCU: 0x91A4, offset: 0x343E5, size: 0x8, addend: 0x0, symName: __ZNKSt3__117__compressed_pairIPN2sf7Vector2IiEERNS_9allocatorIS3_EEE5firstB7v160006Ev, symObjAddr: 0x2678, symBinAddr: 0x100009718, symSize: 0x24 }
  - { offsetInCU: 0x91C8, offset: 0x34409, size: 0x8, addend: 0x0, symName: __ZNSt3__16vectorIN2sf7Vector2IiEENS_9allocatorIS3_EEEC2ERKS6_, symObjAddr: 0x269C, symBinAddr: 0x10000973C, symSize: 0x110 }
  - { offsetInCU: 0x922A, offset: 0x3446B, size: 0x8, addend: 0x0, symName: __ZNSt3__116allocator_traitsINS_9allocatorIN2sf7Vector2IiEEEEE37select_on_container_copy_constructionB7v160006IS5_vvEES5_RKS5_, symObjAddr: 0x27AC, symBinAddr: 0x10000984C, symSize: 0x10 }
  - { offsetInCU: 0x925D, offset: 0x3449E, size: 0x8, addend: 0x0, symName: __ZNSt3__117__compressed_pairIPN2sf7Vector2IiEENS_9allocatorIS3_EEEC1B7v160006IDnS6_EEOT_OT0_, symObjAddr: 0x27BC, symBinAddr: 0x10000985C, symSize: 0x3C }
  - { offsetInCU: 0x92B5, offset: 0x344F6, size: 0x8, addend: 0x0, symName: __ZNSt3__16vectorIN2sf7Vector2IiEENS_9allocatorIS3_EEE11__vallocateB7v160006Em, symObjAddr: 0x2838, symBinAddr: 0x1000098D8, symSize: 0xAC }
  - { offsetInCU: 0x92F8, offset: 0x34539, size: 0x8, addend: 0x0, symName: __ZNSt3__16vectorIN2sf7Vector2IiEENS_9allocatorIS3_EEE18__construct_at_endIPS3_Li0EEEvT_S9_m, symObjAddr: 0x28E4, symBinAddr: 0x100009984, symSize: 0x8C }
  - { offsetInCU: 0x936C, offset: 0x345AD, size: 0x8, addend: 0x0, symName: __ZNSt3__128__exception_guard_exceptionsINS_6vectorIN2sf7Vector2IiEENS_9allocatorIS4_EEE16__destroy_vectorEE10__completeB7v160006Ev, symObjAddr: 0x2970, symBinAddr: 0x100009A10, symSize: 0x1C }
  - { offsetInCU: 0x9391, offset: 0x345D2, size: 0x8, addend: 0x0, symName: __ZNSt3__128__exception_guard_exceptionsINS_6vectorIN2sf7Vector2IiEENS_9allocatorIS4_EEE16__destroy_vectorEED1B7v160006Ev, symObjAddr: 0x298C, symBinAddr: 0x100009A2C, symSize: 0x2C }
  - { offsetInCU: 0x93BA, offset: 0x345FB, size: 0x8, addend: 0x0, symName: __ZNSt3__117__compressed_pairIPN2sf7Vector2IiEENS_9allocatorIS3_EEEC2B7v160006IDnS6_EEOT_OT0_, symObjAddr: 0x29B8, symBinAddr: 0x100009A58, symSize: 0x44 }
  - { offsetInCU: 0x9412, offset: 0x34653, size: 0x8, addend: 0x0, symName: __ZNSt3__122__compressed_pair_elemINS_9allocatorIN2sf7Vector2IiEEEELi1ELb1EEC2B7v160006IS5_vEEOT_, symObjAddr: 0x29FC, symBinAddr: 0x100009A9C, symSize: 0x18 }
  - { offsetInCU: 0x9451, offset: 0x34692, size: 0x8, addend: 0x0, symName: __ZNSt3__128__exception_guard_exceptionsINS_6vectorIN2sf7Vector2IiEENS_9allocatorIS4_EEE16__destroy_vectorEEC1B7v160006ES8_, symObjAddr: 0x2A14, symBinAddr: 0x100009AB4, symSize: 0x34 }
  - { offsetInCU: 0x9489, offset: 0x346CA, size: 0x8, addend: 0x0, symName: __ZNSt3__128__exception_guard_exceptionsINS_6vectorIN2sf7Vector2IiEENS_9allocatorIS4_EEE16__destroy_vectorEEC2B7v160006ES8_, symObjAddr: 0x2A48, symBinAddr: 0x100009AE8, symSize: 0x24 }
  - { offsetInCU: 0x94BE, offset: 0x346FF, size: 0x8, addend: 0x0, symName: __ZNSt3__129_AllocatorDestroyRangeReverseINS_9allocatorIN2sf7Vector2IiEEEEPS4_EC1B7v160006ERS5_RS6_S9_, symObjAddr: 0x2BAC, symBinAddr: 0x100009C4C, symSize: 0x44 }
  - { offsetInCU: 0x9515, offset: 0x34756, size: 0x8, addend: 0x0, symName: __ZNSt3__116allocator_traitsINS_9allocatorIN2sf7Vector2IiEEEEE9constructB7v160006IS4_JRS4_EvEEvRS5_PT_DpOT0_, symObjAddr: 0x2BF0, symBinAddr: 0x100009C90, symSize: 0x34 }
  - { offsetInCU: 0x956B, offset: 0x347AC, size: 0x8, addend: 0x0, symName: __ZNSt3__128__exception_guard_exceptionsINS_29_AllocatorDestroyRangeReverseINS_9allocatorIN2sf7Vector2IiEEEEPS5_EEE10__completeB7v160006Ev, symObjAddr: 0x2C24, symBinAddr: 0x100009CC4, symSize: 0x1C }
  - { offsetInCU: 0x9590, offset: 0x347D1, size: 0x8, addend: 0x0, symName: __ZNSt3__128__exception_guard_exceptionsINS_29_AllocatorDestroyRangeReverseINS_9allocatorIN2sf7Vector2IiEEEEPS5_EEED1B7v160006Ev, symObjAddr: 0x2C40, symBinAddr: 0x100009CE0, symSize: 0x2C }
  - { offsetInCU: 0x95B9, offset: 0x347FA, size: 0x8, addend: 0x0, symName: __ZNSt3__128__exception_guard_exceptionsINS_29_AllocatorDestroyRangeReverseINS_9allocatorIN2sf7Vector2IiEEEEPS5_EEEC1B7v160006ES8_, symObjAddr: 0x2C6C, symBinAddr: 0x100009D0C, symSize: 0x34 }
  - { offsetInCU: 0x95F2, offset: 0x34833, size: 0x8, addend: 0x0, symName: __ZNSt3__128__exception_guard_exceptionsINS_29_AllocatorDestroyRangeReverseINS_9allocatorIN2sf7Vector2IiEEEEPS5_EEEC2B7v160006ES8_, symObjAddr: 0x2CA0, symBinAddr: 0x100009D40, symSize: 0x30 }
  - { offsetInCU: 0x9629, offset: 0x3486A, size: 0x8, addend: 0x0, symName: __ZNSt3__129_AllocatorDestroyRangeReverseINS_9allocatorIN2sf7Vector2IiEEEEPS4_EC2B7v160006ERS5_RS6_S9_, symObjAddr: 0x2CD0, symBinAddr: 0x100009D70, symSize: 0x38 }
  - { offsetInCU: 0x967D, offset: 0x348BE, size: 0x8, addend: 0x0, symName: __ZNSt3__19allocatorIN2sf7Vector2IiEEE9constructB7v160006IS3_JRS3_EEEvPT_DpOT0_, symObjAddr: 0x2D08, symBinAddr: 0x100009DA8, symSize: 0x28 }
  - { offsetInCU: 0x96D2, offset: 0x34913, size: 0x8, addend: 0x0, symName: __ZNSt3__128__exception_guard_exceptionsINS_29_AllocatorDestroyRangeReverseINS_9allocatorIN2sf7Vector2IiEEEEPS5_EEED2B7v160006Ev, symObjAddr: 0x2D30, symBinAddr: 0x100009DD0, symSize: 0x50 }
  - { offsetInCU: 0x96FC, offset: 0x3493D, size: 0x8, addend: 0x0, symName: __ZNKSt3__129_AllocatorDestroyRangeReverseINS_9allocatorIN2sf7Vector2IiEEEEPS4_EclB7v160006Ev, symObjAddr: 0x2D80, symBinAddr: 0x100009E20, symSize: 0x68 }
  - { offsetInCU: 0x9726, offset: 0x34967, size: 0x8, addend: 0x0, symName: __ZNSt3__119__to_address_helperINS_16reverse_iteratorIPN2sf7Vector2IiEEEEvE6__callB7v160006ERKS6_, symObjAddr: 0x2E7C, symBinAddr: 0x100009F1C, symSize: 0x38 }
  - { offsetInCU: 0x9749, offset: 0x3498A, size: 0x8, addend: 0x0, symName: __ZNKSt3__116reverse_iteratorIPN2sf7Vector2IiEEEptB7v160006Ev, symObjAddr: 0x2EB4, symBinAddr: 0x100009F54, symSize: 0x24 }
  - { offsetInCU: 0x976D, offset: 0x349AE, size: 0x8, addend: 0x0, symName: __ZNSt3__128__exception_guard_exceptionsINS_6vectorIN2sf7Vector2IiEENS_9allocatorIS4_EEE16__destroy_vectorEED2B7v160006Ev, symObjAddr: 0x2ED8, symBinAddr: 0x100009F78, symSize: 0x50 }
  - { offsetInCU: 0x9797, offset: 0x349D8, size: 0x8, addend: 0x0, symName: __ZNSt3__16vectorIN2sf7Vector2IiEENS_9allocatorIS3_EEE19__copy_assign_allocB7v160006ERKS6_, symObjAddr: 0x2F28, symBinAddr: 0x100009FC8, symSize: 0x2C }
  - { offsetInCU: 0x97CA, offset: 0x34A0B, size: 0x8, addend: 0x0, symName: __ZNSt3__16vectorIN2sf7Vector2IiEENS_9allocatorIS3_EEE6assignIPS3_Li0EEEvT_S9_, symObjAddr: 0x2F54, symBinAddr: 0x100009FF4, symSize: 0x17C }
  - { offsetInCU: 0x986E, offset: 0x34AAF, size: 0x8, addend: 0x0, symName: __ZNSt3__16vectorIN2sf7Vector2IiEENS_9allocatorIS3_EEE19__copy_assign_allocB7v160006ERKS6_NS_17integral_constantIbLb0EEE, symObjAddr: 0x30D0, symBinAddr: 0x10000A170, symSize: 0x14 }
  - { offsetInCU: 0x98AC, offset: 0x34AED, size: 0x8, addend: 0x0, symName: __ZNSt3__16vectorIN2sf7Vector2IiEENS_9allocatorIS3_EEE17__destruct_at_endB7v160006EPS3_, symObjAddr: 0x31A0, symBinAddr: 0x10000A240, symSize: 0x60 }
  - { offsetInCU: 0x9913, offset: 0x34B54, size: 0x8, addend: 0x0, symName: __ZNKSt3__114__copy_trivialclB7v160006IN2sf7Vector2IiEES4_Li0EEENS_4pairIPT_PT0_EES7_S7_S9_, symObjAddr: 0x348C, symBinAddr: 0x10000A4A0, symSize: 0x48 }
  - { offsetInCU: 0x997F, offset: 0x34BC0, size: 0x8, addend: 0x0, symName: __ZNSt3__14pairIPN2sf7Vector2IiEES4_EC1B7v160006IRS4_S4_LPv0EEEOT_OT0_, symObjAddr: 0x3654, symBinAddr: 0x10000A668, symSize: 0x3C }
  - { offsetInCU: 0x99DE, offset: 0x34C1F, size: 0x8, addend: 0x0, symName: __ZNSt3__14pairIPN2sf7Vector2IiEES4_EC2B7v160006IRS4_S4_LPv0EEEOT_OT0_, symObjAddr: 0x3690, symBinAddr: 0x10000A6A4, symSize: 0x34 }
  - { offsetInCU: 0x9A3B, offset: 0x34C7C, size: 0x8, addend: 0x0, symName: __ZNSt3__118__unwrap_iter_implIPN2sf7Vector2IiEELb1EE8__unwrapB7v160006ES4_, symObjAddr: 0x36C4, symBinAddr: 0x10000A6D8, symSize: 0x24 }
  - { offsetInCU: 0x9A5D, offset: 0x34C9E, size: 0x8, addend: 0x0, symName: __ZNSt3__14pairIPN2sf7Vector2IiEES4_EC1B7v160006IS4_S4_LPv0EEEOT_OT0_, symObjAddr: 0x36E8, symBinAddr: 0x10000A6FC, symSize: 0x3C }
  - { offsetInCU: 0x9ABC, offset: 0x34CFD, size: 0x8, addend: 0x0, symName: __ZNSt3__14pairIPN2sf7Vector2IiEES4_EC2B7v160006IS4_S4_LPv0EEEOT_OT0_, symObjAddr: 0x3724, symBinAddr: 0x10000A738, symSize: 0x34 }
  - { offsetInCU: 0x9B19, offset: 0x34D5A, size: 0x8, addend: 0x0, symName: __ZNSt3__118__unwrap_iter_implIPN2sf7Vector2IiEELb1EE8__rewrapB7v160006ES4_S4_, symObjAddr: 0x3758, symBinAddr: 0x10000A76C, symSize: 0x50 }
  - { offsetInCU: 0x9B49, offset: 0x34D8A, size: 0x8, addend: 0x0, symName: __ZNSt3__16vectorIN2sf7Vector2IiEENS_9allocatorIS3_EEE27__invalidate_iterators_pastB7v160006EPS3_, symObjAddr: 0x37A8, symBinAddr: 0x10000A7BC, symSize: 0x14 }
  - { offsetInCU: 0x9B7F, offset: 0x34DC0, size: 0x8, addend: 0x0, symName: __ZNSt3__16vectorIN2sf7Vector2IiEENS_9allocatorIS3_EEE8__appendEm, symObjAddr: 0x38BC, symBinAddr: 0x10000A7D0, symSize: 0x108 }
  - { offsetInCU: 0x9BDC, offset: 0x34E1D, size: 0x8, addend: 0x0, symName: __ZNSt3__16vectorIN2sf7Vector2IiEENS_9allocatorIS3_EEE18__construct_at_endEm, symObjAddr: 0x39C4, symBinAddr: 0x10000A8D8, symSize: 0xC8 }
  - { offsetInCU: 0x9C52, offset: 0x34E93, size: 0x8, addend: 0x0, symName: __ZNSt3__114__split_bufferIN2sf7Vector2IiEERNS_9allocatorIS3_EEE18__construct_at_endEm, symObjAddr: 0x3A8C, symBinAddr: 0x10000A9A0, symSize: 0xB4 }
  - { offsetInCU: 0x9C94, offset: 0x34ED5, size: 0x8, addend: 0x0, symName: __ZNSt3__116allocator_traitsINS_9allocatorIN2sf7Vector2IiEEEEE9constructB7v160006IS4_JEvEEvRS5_PT_DpOT0_, symObjAddr: 0x3B40, symBinAddr: 0x10000AA54, symSize: 0x2C }
  - { offsetInCU: 0x9CD6, offset: 0x34F17, size: 0x8, addend: 0x0, symName: __ZNSt3__19allocatorIN2sf7Vector2IiEEE9constructB7v160006IS3_JEEEvPT_DpOT0_, symObjAddr: 0x3B6C, symBinAddr: 0x10000AA80, symSize: 0x28 }
  - { offsetInCU: 0x9D16, offset: 0x34F57, size: 0x8, addend: 0x0, symName: __ZN2sf7Vector2IiEC1Ev, symObjAddr: 0x3B94, symBinAddr: 0x10000AAA8, symSize: 0x2C }
  - { offsetInCU: 0x9D41, offset: 0x34F82, size: 0x8, addend: 0x0, symName: __ZN2sf7Vector2IiEC2Ev, symObjAddr: 0x3BC0, symBinAddr: 0x10000AAD4, symSize: 0x1C }
  - { offsetInCU: 0x9D75, offset: 0x34FB6, size: 0x8, addend: 0x0, symName: __ZNSt3__114__split_bufferIN2sf7Vector2IiEERNS_9allocatorIS3_EEE21_ConstructTransactionC1B7v160006EPPS3_m, symObjAddr: 0x3BDC, symBinAddr: 0x10000AAF0, symSize: 0x3C }
  - { offsetInCU: 0x9DBA, offset: 0x34FFB, size: 0x8, addend: 0x0, symName: __ZNSt3__114__split_bufferIN2sf7Vector2IiEERNS_9allocatorIS3_EEE21_ConstructTransactionD1B7v160006Ev, symObjAddr: 0x3C18, symBinAddr: 0x10000AB2C, symSize: 0x2C }
  - { offsetInCU: 0x9DE4, offset: 0x35025, size: 0x8, addend: 0x0, symName: __ZNSt3__114__split_bufferIN2sf7Vector2IiEERNS_9allocatorIS3_EEE21_ConstructTransactionC2B7v160006EPPS3_m, symObjAddr: 0x3C44, symBinAddr: 0x10000AB58, symSize: 0x44 }
  - { offsetInCU: 0x9E28, offset: 0x35069, size: 0x8, addend: 0x0, symName: __ZNSt3__114__split_bufferIN2sf7Vector2IiEERNS_9allocatorIS3_EEE21_ConstructTransactionD2B7v160006Ev, symObjAddr: 0x3C88, symBinAddr: 0x10000AB9C, symSize: 0x20 }
  - { offsetInCU: 0x9E50, offset: 0x35091, size: 0x8, addend: 0x0, symName: __ZNSt3__16vectorIN2sf7Vector2IiEENS_9allocatorIS3_EEE22__construct_one_at_endB7v160006IJRKS3_EEEvDpOT_, symObjAddr: 0x3CA8, symBinAddr: 0x10000ABBC, symSize: 0x90 }
  - { offsetInCU: 0x9E9E, offset: 0x350DF, size: 0x8, addend: 0x0, symName: __ZNSt3__16vectorIN2sf7Vector2IiEENS_9allocatorIS3_EEE21__push_back_slow_pathIRKS3_EEvOT_, symObjAddr: 0x3D38, symBinAddr: 0x10000AC4C, symSize: 0xD8 }
  - { offsetInCU: 0x9EFE, offset: 0x3513F, size: 0x8, addend: 0x0, symName: __ZNSt3__116allocator_traitsINS_9allocatorIN2sf7Vector2IiEEEEE9constructB7v160006IS4_JRKS4_EvEEvRS5_PT_DpOT0_, symObjAddr: 0x3E10, symBinAddr: 0x10000AD24, symSize: 0x34 }
  - { offsetInCU: 0x9F54, offset: 0x35195, size: 0x8, addend: 0x0, symName: __ZNSt3__19allocatorIN2sf7Vector2IiEEE9constructB7v160006IS3_JRKS3_EEEvPT_DpOT0_, symObjAddr: 0x3E44, symBinAddr: 0x10000AD58, symSize: 0x28 }
  - { offsetInCU: 0x26, offset: 0x3529C, size: 0x8, addend: 0x0, symName: __ZN5FruitC2Ev, symObjAddr: 0x0, symBinAddr: 0x10000AD80, symSize: 0x3C }
  - { offsetInCU: 0x620, offset: 0x35896, size: 0x8, addend: 0x0, symName: __ZN5FruitC2Ev, symObjAddr: 0x0, symBinAddr: 0x10000AD80, symSize: 0x3C }
  - { offsetInCU: 0x64A, offset: 0x358C0, size: 0x8, addend: 0x0, symName: __ZN5Fruit7respawnEv, symObjAddr: 0x3C, symBinAddr: 0x10000ADBC, symSize: 0x5C }
  - { offsetInCU: 0x671, offset: 0x358E7, size: 0x8, addend: 0x0, symName: __ZN5FruitC1Ev, symObjAddr: 0x98, symBinAddr: 0x10000AE18, symSize: 0x2C }
  - { offsetInCU: 0x69B, offset: 0x35911, size: 0x8, addend: 0x0, symName: __ZNK5Fruit4getXEv, symObjAddr: 0xC4, symBinAddr: 0x10000AE44, symSize: 0x18 }
  - { offsetInCU: 0x6C2, offset: 0x35938, size: 0x8, addend: 0x0, symName: __ZNK5Fruit4getYEv, symObjAddr: 0xDC, symBinAddr: 0x10000AE5C, symSize: 0x18 }
  - { offsetInCU: 0x26, offset: 0x3598F, size: 0x8, addend: 0x0, symName: __ZN10ScoreBoardC2Ev, symObjAddr: 0x0, symBinAddr: 0x10000AE74, symSize: 0x1C }
  - { offsetInCU: 0x28B6, offset: 0x3821F, size: 0x8, addend: 0x0, symName: __ZN10ScoreBoardC2Ev, symObjAddr: 0x0, symBinAddr: 0x10000AE74, symSize: 0x1C }
  - { offsetInCU: 0x28E1, offset: 0x3824A, size: 0x8, addend: 0x0, symName: __ZN10ScoreBoardC1Ev, symObjAddr: 0x1C, symBinAddr: 0x10000AE90, symSize: 0x2C }
  - { offsetInCU: 0x290B, offset: 0x38274, size: 0x8, addend: 0x0, symName: __ZN10ScoreBoard8getScoreEv, symObjAddr: 0x48, symBinAddr: 0x10000AEBC, symSize: 0x18 }
  - { offsetInCU: 0x2932, offset: 0x3829B, size: 0x8, addend: 0x0, symName: __ZN10ScoreBoard13increaseScoreEi, symObjAddr: 0x60, symBinAddr: 0x10000AED4, symSize: 0x2C }
  - { offsetInCU: 0x2966, offset: 0x382CF, size: 0x8, addend: 0x0, symName: __ZN10ScoreBoard13decreaseScoreEi, symObjAddr: 0x8C, symBinAddr: 0x10000AF00, symSize: 0x2C }
  - { offsetInCU: 0x299B, offset: 0x38304, size: 0x8, addend: 0x0, symName: __ZN10ScoreBoard10resetScoreEv, symObjAddr: 0xB8, symBinAddr: 0x10000AF2C, symSize: 0x1C }
...
